<?xml version="1.0" encoding="utf-8"?>
<?xml-stylesheet type="text/xsl" href="pdml2html.xsl"?>
<!-- You can find pdml2html.xsl in /usr/share/wireshark or at https://code.wireshark.org/review/gitweb?p=wireshark.git;a=blob_plain;f=pdml2html.xsl. -->
<pdml version="0" creator="wireshark/3.2.3" time="Fri Oct 16 12:34:09 2020" capture_file="/tmp/wireshark_wlp2s0_20201016123327_rWbkFk.pcapng">
<packet>
  <proto name="geninfo" pos="0" showname="General information" size="54">
    <field name="num" pos="0" show="1" showname="Number" value="1" size="54"/>
    <field name="len" pos="0" show="54" showname="Frame Length" value="36" size="54"/>
    <field name="caplen" pos="0" show="54" showname="Captured Length" value="36" size="54"/>
    <field name="timestamp" pos="0" show="Oct 16, 2020 12:33:27.158810411 EDT" showname="Captured Time" value="1602866007.158810411" size="54"/>
  </proto>
  <proto name="frame" showname="Frame 1: 54 bytes on wire (432 bits), 54 bytes captured (432 bits) on interface wlp2s0, id 0" size="54" pos="0">
    <field name="frame.interface_id" showname="Interface id: 0 (wlp2s0)" size="0" pos="0" show="0">
      <field name="frame.interface_name" showname="Interface name: wlp2s0" size="0" pos="0" show="wlp2s0"/>
    </field>
    <field name="frame.encap_type" showname="Encapsulation type: Ethernet (1)" size="0" pos="0" show="1"/>
    <field name="frame.time" showname="Arrival Time: Oct 16, 2020 12:33:27.158810411 EDT" size="0" pos="0" show="Oct 16, 2020 12:33:27.158810411 EDT"/>
    <field name="frame.offset_shift" showname="Time shift for this packet: 0.000000000 seconds" size="0" pos="0" show="0.000000000"/>
    <field name="frame.time_epoch" showname="Epoch Time: 1602866007.158810411 seconds" size="0" pos="0" show="1602866007.158810411"/>
    <field name="frame.time_delta" showname="Time delta from previous captured frame: 0.000000000 seconds" size="0" pos="0" show="0.000000000"/>
    <field name="frame.time_delta_displayed" showname="Time delta from previous displayed frame: 0.000000000 seconds" size="0" pos="0" show="0.000000000"/>
    <field name="frame.time_relative" showname="Time since reference or first frame: 0.000000000 seconds" size="0" pos="0" show="0.000000000"/>
    <field name="frame.number" showname="Frame Number: 1" size="0" pos="0" show="1"/>
    <field name="frame.len" showname="Frame Length: 54 bytes (432 bits)" size="0" pos="0" show="54"/>
    <field name="frame.cap_len" showname="Capture Length: 54 bytes (432 bits)" size="0" pos="0" show="54"/>
    <field name="frame.marked" showname="Frame is marked: False" size="0" pos="0" show="0"/>
    <field name="frame.ignored" showname="Frame is ignored: False" size="0" pos="0" show="0"/>
    <field name="frame.protocols" showname="Protocols in frame: eth:ethertype:ip:tcp" size="0" pos="0" show="eth:ethertype:ip:tcp"/>
    <field name="frame.coloring_rule.name" showname="Coloring Rule Name: TCP" size="0" pos="0" show="TCP"/>
    <field name="frame.coloring_rule.string" showname="Coloring Rule String: tcp" size="0" pos="0" show="tcp"/>
  </proto>
  <proto name="eth" showname="Ethernet II, Src: IntelCor_65:ea:e6 (10:f0:05:65:ea:e6), Dst: Verizon_05:1f:27 (48:5d:36:05:1f:27)" size="14" pos="0">
    <field name="eth.dst" showname="Destination: Verizon_05:1f:27 (48:5d:36:05:1f:27)" size="6" pos="0" show="48:5d:36:05:1f:27" value="485d36051f27">
      <field name="eth.dst_resolved" showname="Destination (resolved): Verizon_05:1f:27" hide="yes" size="6" pos="0" show="Verizon_05:1f:27" value="485d36051f27"/>
      <field name="eth.dst.oui" showname="Destination OUI: 48:5d:36 (Verizon)" hide="yes" size="3" pos="0" show="4742454" value="485d36"/>
      <field name="eth.dst.oui_resolved" showname="Destination OUI (resolved): Verizon" hide="yes" size="6" pos="0" show="Verizon" value="485d36051f27"/>
      <field name="eth.addr" showname="Address: Verizon_05:1f:27 (48:5d:36:05:1f:27)" size="6" pos="0" show="48:5d:36:05:1f:27" value="485d36051f27"/>
      <field name="eth.addr_resolved" showname="Address (resolved): Verizon_05:1f:27" hide="yes" size="6" pos="0" show="Verizon_05:1f:27" value="485d36051f27"/>
      <field name="eth.addr.oui" showname="Address OUI: 48:5d:36 (Verizon)" hide="yes" size="3" pos="0" show="4742454" value="485d36"/>
      <field name="eth.addr.oui_resolved" showname="Address OUI (resolved): Verizon" hide="yes" size="6" pos="0" show="Verizon" value="485d36051f27"/>
      <field name="eth.dst.lg" showname=".... ..0. .... .... .... .... = LG bit: Globally unique address (factory default)" size="3" pos="0" show="0" value="0" unmaskedvalue="485d36"/>
      <field name="eth.lg" showname=".... ..0. .... .... .... .... = LG bit: Globally unique address (factory default)" hide="yes" size="3" pos="0" show="0" value="0" unmaskedvalue="485d36"/>
      <field name="eth.dst.ig" showname=".... ...0 .... .... .... .... = IG bit: Individual address (unicast)" size="3" pos="0" show="0" value="0" unmaskedvalue="485d36"/>
      <field name="eth.ig" showname=".... ...0 .... .... .... .... = IG bit: Individual address (unicast)" hide="yes" size="3" pos="0" show="0" value="0" unmaskedvalue="485d36"/>
    </field>
    <field name="eth.src" showname="Source: IntelCor_65:ea:e6 (10:f0:05:65:ea:e6)" size="6" pos="6" show="10:f0:05:65:ea:e6" value="10f00565eae6">
      <field name="eth.src_resolved" showname="Source (resolved): IntelCor_65:ea:e6" hide="yes" size="6" pos="6" show="IntelCor_65:ea:e6" value="10f00565eae6"/>
      <field name="eth.src.oui" showname="Source OUI: 10:f0:05 (Intel Corporate)" hide="yes" size="3" pos="6" show="1110021" value="10f005"/>
      <field name="eth.src.oui_resolved" showname="Source OUI (resolved): Intel Corporate" hide="yes" size="6" pos="6" show="Intel Corporate" value="10f00565eae6"/>
      <field name="eth.addr" showname="Address: IntelCor_65:ea:e6 (10:f0:05:65:ea:e6)" size="6" pos="6" show="10:f0:05:65:ea:e6" value="10f00565eae6"/>
      <field name="eth.addr_resolved" showname="Address (resolved): IntelCor_65:ea:e6" hide="yes" size="6" pos="6" show="IntelCor_65:ea:e6" value="10f00565eae6"/>
      <field name="eth.addr.oui" showname="Address OUI: 10:f0:05 (Intel Corporate)" hide="yes" size="3" pos="6" show="1110021" value="10f005"/>
      <field name="eth.addr.oui_resolved" showname="Address OUI (resolved): Intel Corporate" hide="yes" size="6" pos="6" show="Intel Corporate" value="10f00565eae6"/>
      <field name="eth.src.lg" showname=".... ..0. .... .... .... .... = LG bit: Globally unique address (factory default)" size="3" pos="6" show="0" value="0" unmaskedvalue="10f005"/>
      <field name="eth.lg" showname=".... ..0. .... .... .... .... = LG bit: Globally unique address (factory default)" hide="yes" size="3" pos="6" show="0" value="0" unmaskedvalue="10f005"/>
      <field name="eth.src.ig" showname=".... ...0 .... .... .... .... = IG bit: Individual address (unicast)" size="3" pos="6" show="0" value="0" unmaskedvalue="10f005"/>
      <field name="eth.ig" showname=".... ...0 .... .... .... .... = IG bit: Individual address (unicast)" hide="yes" size="3" pos="6" show="0" value="0" unmaskedvalue="10f005"/>
    </field>
    <field name="eth.type" showname="Type: IPv4 (0x0800)" size="2" pos="12" show="0x00000800" value="0800"/>
  </proto>
  <proto name="ip" showname="Internet Protocol Version 4, Src: 192.168.1.172, Dst: 52.96.32.178" size="20" pos="14">
    <field name="ip.version" showname="0100 .... = Version: 4" size="1" pos="14" show="4" value="4" unmaskedvalue="45"/>
    <field name="ip.hdr_len" showname=".... 0101 = Header Length: 20 bytes (5)" size="1" pos="14" show="20" value="45"/>
    <field name="ip.dsfield" showname="Differentiated Services Field: 0x00 (DSCP: CS0, ECN: Not-ECT)" size="1" pos="15" show="0x00000000" value="00">
      <field name="ip.dsfield.dscp" showname="0000 00.. = Differentiated Services Codepoint: Default (0)" size="1" pos="15" show="0" value="0" unmaskedvalue="00"/>
      <field name="ip.dsfield.ecn" showname=".... ..00 = Explicit Congestion Notification: Not ECN-Capable Transport (0)" size="1" pos="15" show="0" value="0" unmaskedvalue="00"/>
    </field>
    <field name="ip.len" showname="Total Length: 40" size="2" pos="16" show="40" value="0028"/>
    <field name="ip.id" showname="Identification: 0xd176 (53622)" size="2" pos="18" show="0x0000d176" value="d176"/>
    <field name="ip.flags" showname="Flags: 0x4000, Don&#x27;t fragment" size="2" pos="20" show="0x00004000" value="4000">
      <field name="ip.flags.rb" showname="0... .... .... .... = Reserved bit: Not set" size="2" pos="20" show="0" value="0" unmaskedvalue="4000"/>
      <field name="ip.flags.df" showname=".1.. .... .... .... = Don&#x27;t fragment: Set" size="2" pos="20" show="1" value="1" unmaskedvalue="4000"/>
      <field name="ip.flags.mf" showname="..0. .... .... .... = More fragments: Not set" size="2" pos="20" show="0" value="0" unmaskedvalue="4000"/>
    </field>
    <field name="ip.frag_offset" showname="Fragment offset: 0" size="2" pos="20" show="0" value="4000"/>
    <field name="ip.ttl" showname="Time to live: 64" size="1" pos="22" show="64" value="40"/>
    <field name="ip.proto" showname="Protocol: TCP (6)" size="1" pos="23" show="6" value="06"/>
    <field name="ip.checksum" showname="Header checksum: 0x51f3 [validation disabled]" size="2" pos="24" show="0x000051f3" value="51f3"/>
    <field name="ip.checksum.status" showname="Header checksum status: Unverified" size="0" pos="24" show="2"/>
    <field name="ip.src" showname="Source: 192.168.1.172" size="4" pos="26" show="192.168.1.172" value="c0a801ac"/>
    <field name="ip.addr" showname="Source or Destination Address: 192.168.1.172" hide="yes" size="4" pos="26" show="192.168.1.172" value="c0a801ac"/>
    <field name="ip.src_host" showname="Source Host: 192.168.1.172" hide="yes" size="4" pos="26" show="192.168.1.172" value="c0a801ac"/>
    <field name="ip.host" showname="Source or Destination Host: 192.168.1.172" hide="yes" size="4" pos="26" show="192.168.1.172" value="c0a801ac"/>
    <field name="ip.dst" showname="Destination: 52.96.32.178" size="4" pos="30" show="52.96.32.178" value="346020b2"/>
    <field name="ip.addr" showname="Source or Destination Address: 52.96.32.178" hide="yes" size="4" pos="30" show="52.96.32.178" value="346020b2"/>
    <field name="ip.dst_host" showname="Destination Host: 52.96.32.178" hide="yes" size="4" pos="30" show="52.96.32.178" value="346020b2"/>
    <field name="ip.host" showname="Source or Destination Host: 52.96.32.178" hide="yes" size="4" pos="30" show="52.96.32.178" value="346020b2"/>
  </proto>
  <proto name="tcp" showname="Transmission Control Protocol, Src Port: 41274, Dst Port: 443, Seq: 1, Ack: 1, Len: 0" size="20" pos="34">
    <field name="tcp.srcport" showname="Source Port: 41274" size="2" pos="34" show="41274" value="a13a"/>
    <field name="tcp.dstport" showname="Destination Port: 443" size="2" pos="36" show="443" value="01bb"/>
    <field name="tcp.port" showname="Source or Destination Port: 41274" hide="yes" size="2" pos="34" show="41274" value="a13a"/>
    <field name="tcp.port" showname="Source or Destination Port: 443" hide="yes" size="2" pos="36" show="443" value="01bb"/>
    <field name="tcp.stream" showname="Stream index: 0" size="0" pos="34" show="0"/>
    <field name="tcp.len" showname="TCP Segment Len: 0" size="1" pos="46" show="0" value="50"/>
    <field name="tcp.seq" showname="Sequence number: 1    (relative sequence number)" size="4" pos="38" show="1" value="a9096f22"/>
    <field name="tcp.seq_raw" showname="Sequence number (raw): 2835967778" size="4" pos="38" show="2835967778" value="a9096f22"/>
    <field name="tcp.nxtseq" showname="Next sequence number: 1    (relative sequence number)" size="0" pos="34" show="1"/>
    <field name="tcp.ack" showname="Acknowledgment number: 1    (relative ack number)" size="4" pos="42" show="1" value="09f6897d"/>
    <field name="tcp.ack_raw" showname="Acknowledgment number (raw): 167151997" size="4" pos="42" show="167151997" value="09f6897d"/>
    <field name="tcp.hdr_len" showname="0101 .... = Header Length: 20 bytes (5)" size="1" pos="46" show="20" value="50"/>
    <field name="tcp.flags" showname="Flags: 0x010 (ACK)" size="2" pos="46" show="0x00000010" value="10" unmaskedvalue="5010">
      <field name="tcp.flags.res" showname="000. .... .... = Reserved: Not set" size="1" pos="46" show="0" value="0" unmaskedvalue="50"/>
      <field name="tcp.flags.ns" showname="...0 .... .... = Nonce: Not set" size="1" pos="46" show="0" value="0" unmaskedvalue="50"/>
      <field name="tcp.flags.cwr" showname=".... 0... .... = Congestion Window Reduced (CWR): Not set" size="1" pos="47" show="0" value="0" unmaskedvalue="10"/>
      <field name="tcp.flags.ecn" showname=".... .0.. .... = ECN-Echo: Not set" size="1" pos="47" show="0" value="0" unmaskedvalue="10"/>
      <field name="tcp.flags.urg" showname=".... ..0. .... = Urgent: Not set" size="1" pos="47" show="0" value="0" unmaskedvalue="10"/>
      <field name="tcp.flags.ack" showname=".... ...1 .... = Acknowledgment: Set" size="1" pos="47" show="1" value="1" unmaskedvalue="10"/>
      <field name="tcp.flags.push" showname=".... .... 0... = Push: Not set" size="1" pos="47" show="0" value="0" unmaskedvalue="10"/>
      <field name="tcp.flags.reset" showname=".... .... .0.. = Reset: Not set" size="1" pos="47" show="0" value="0" unmaskedvalue="10"/>
      <field name="tcp.flags.syn" showname=".... .... ..0. = Syn: Not set" size="1" pos="47" show="0" value="0" unmaskedvalue="10"/>
      <field name="tcp.flags.fin" showname=".... .... ...0 = Fin: Not set" size="1" pos="47" show="0" value="0" unmaskedvalue="10"/>
      <field name="tcp.flags.str" showname="TCP Flags: \xc2\xb7\xc2\xb7\xc2\xb7\xc2\xb7\xc2\xb7\xc2\xb7\xc2\xb7A\xc2\xb7\xc2\xb7\xc2\xb7\xc2\xb7" size="2" pos="46" show="\xc2\xb7\xc2\xb7\xc2\xb7\xc2\xb7\xc2\xb7\xc2\xb7\xc2\xb7A\xc2\xb7\xc2\xb7\xc2\xb7\xc2\xb7" value="5010"/>
    </field>
    <field name="tcp.window_size_value" showname="Window size value: 501" size="2" pos="48" show="501" value="01f5"/>
    <field name="tcp.window_size" showname="Calculated window size: 501" size="2" pos="48" show="501" value="01f5"/>
    <field name="tcp.window_size_scalefactor" showname="Window size scaling factor: -1 (unknown)" size="2" pos="48" show="-1" value="01f5"/>
    <field name="tcp.checksum" showname="Checksum: 0x47e4 [unverified]" size="2" pos="50" show="0x000047e4" value="47e4"/>
    <field name="tcp.checksum.status" showname="Checksum Status: Unverified" size="0" pos="50" show="2"/>
    <field name="tcp.urgent_pointer" showname="Urgent pointer: 0" size="2" pos="52" show="0" value="0000"/>
    <field name="" show="Timestamps" size="0" pos="34">
      <field name="tcp.time_relative" showname="Time since first frame in this TCP stream: 0.000000000 seconds" size="0" pos="34" show="0.000000000"/>
      <field name="tcp.time_delta" showname="Time since previous frame in this TCP stream: 0.000000000 seconds" size="0" pos="34" show="0.000000000"/>
    </field>
  </proto>
</packet>

<packet>
  <proto name="geninfo" pos="0" showname="General information" size="64">
    <field name="num" pos="0" show="2" showname="Number" value="2" size="64"/>
    <field name="len" pos="0" show="64" showname="Frame Length" value="40" size="64"/>
    <field name="caplen" pos="0" show="64" showname="Captured Length" value="40" size="64"/>
    <field name="timestamp" pos="0" show="Oct 16, 2020 12:33:27.166943955 EDT" showname="Captured Time" value="1602866007.166943955" size="64"/>
  </proto>
  <proto name="frame" showname="Frame 2: 64 bytes on wire (512 bits), 64 bytes captured (512 bits) on interface wlp2s0, id 0" size="64" pos="0">
    <field name="frame.interface_id" showname="Interface id: 0 (wlp2s0)" size="0" pos="0" show="0">
      <field name="frame.interface_name" showname="Interface name: wlp2s0" size="0" pos="0" show="wlp2s0"/>
    </field>
    <field name="frame.encap_type" showname="Encapsulation type: Ethernet (1)" size="0" pos="0" show="1"/>
    <field name="frame.time" showname="Arrival Time: Oct 16, 2020 12:33:27.166943955 EDT" size="0" pos="0" show="Oct 16, 2020 12:33:27.166943955 EDT"/>
    <field name="frame.offset_shift" showname="Time shift for this packet: 0.000000000 seconds" size="0" pos="0" show="0.000000000"/>
    <field name="frame.time_epoch" showname="Epoch Time: 1602866007.166943955 seconds" size="0" pos="0" show="1602866007.166943955"/>
    <field name="frame.time_delta" showname="Time delta from previous captured frame: 0.008133544 seconds" size="0" pos="0" show="0.008133544"/>
    <field name="frame.time_delta_displayed" showname="Time delta from previous displayed frame: 0.008133544 seconds" size="0" pos="0" show="0.008133544"/>
    <field name="frame.time_relative" showname="Time since reference or first frame: 0.008133544 seconds" size="0" pos="0" show="0.008133544"/>
    <field name="frame.number" showname="Frame Number: 2" size="0" pos="0" show="2"/>
    <field name="frame.len" showname="Frame Length: 64 bytes (512 bits)" size="0" pos="0" show="64"/>
    <field name="frame.cap_len" showname="Capture Length: 64 bytes (512 bits)" size="0" pos="0" show="64"/>
    <field name="frame.marked" showname="Frame is marked: False" size="0" pos="0" show="0"/>
    <field name="frame.ignored" showname="Frame is ignored: False" size="0" pos="0" show="0"/>
    <field name="frame.protocols" showname="Protocols in frame: eth:ethertype:ip:tcp" size="0" pos="0" show="eth:ethertype:ip:tcp"/>
    <field name="frame.coloring_rule.name" showname="Coloring Rule Name: Bad TCP" size="0" pos="0" show="Bad TCP"/>
    <field name="frame.coloring_rule.string" showname="Coloring Rule String: tcp.analysis.flags &amp;&amp; !tcp.analysis.window_update" size="0" pos="0" show="tcp.analysis.flags &amp;&amp; !tcp.analysis.window_update"/>
  </proto>
  <proto name="eth" showname="Ethernet II, Src: Verizon_05:1f:27 (48:5d:36:05:1f:27), Dst: IntelCor_65:ea:e6 (10:f0:05:65:ea:e6)" size="14" pos="0">
    <field name="eth.dst" showname="Destination: IntelCor_65:ea:e6 (10:f0:05:65:ea:e6)" size="6" pos="0" show="10:f0:05:65:ea:e6" value="10f00565eae6">
      <field name="eth.dst_resolved" showname="Destination (resolved): IntelCor_65:ea:e6" hide="yes" size="6" pos="0" show="IntelCor_65:ea:e6" value="10f00565eae6"/>
      <field name="eth.dst.oui" showname="Destination OUI: 10:f0:05 (Intel Corporate)" hide="yes" size="3" pos="0" show="1110021" value="10f005"/>
      <field name="eth.dst.oui_resolved" showname="Destination OUI (resolved): Intel Corporate" hide="yes" size="6" pos="0" show="Intel Corporate" value="10f00565eae6"/>
      <field name="eth.addr" showname="Address: IntelCor_65:ea:e6 (10:f0:05:65:ea:e6)" size="6" pos="0" show="10:f0:05:65:ea:e6" value="10f00565eae6"/>
      <field name="eth.addr_resolved" showname="Address (resolved): IntelCor_65:ea:e6" hide="yes" size="6" pos="0" show="IntelCor_65:ea:e6" value="10f00565eae6"/>
      <field name="eth.addr.oui" showname="Address OUI: 10:f0:05 (Intel Corporate)" hide="yes" size="3" pos="0" show="1110021" value="10f005"/>
      <field name="eth.addr.oui_resolved" showname="Address OUI (resolved): Intel Corporate" hide="yes" size="6" pos="0" show="Intel Corporate" value="10f00565eae6"/>
      <field name="eth.dst.lg" showname=".... ..0. .... .... .... .... = LG bit: Globally unique address (factory default)" size="3" pos="0" show="0" value="0" unmaskedvalue="10f005"/>
      <field name="eth.lg" showname=".... ..0. .... .... .... .... = LG bit: Globally unique address (factory default)" hide="yes" size="3" pos="0" show="0" value="0" unmaskedvalue="10f005"/>
      <field name="eth.dst.ig" showname=".... ...0 .... .... .... .... = IG bit: Individual address (unicast)" size="3" pos="0" show="0" value="0" unmaskedvalue="10f005"/>
      <field name="eth.ig" showname=".... ...0 .... .... .... .... = IG bit: Individual address (unicast)" hide="yes" size="3" pos="0" show="0" value="0" unmaskedvalue="10f005"/>
    </field>
    <field name="eth.src" showname="Source: Verizon_05:1f:27 (48:5d:36:05:1f:27)" size="6" pos="6" show="48:5d:36:05:1f:27" value="485d36051f27">
      <field name="eth.src_resolved" showname="Source (resolved): Verizon_05:1f:27" hide="yes" size="6" pos="6" show="Verizon_05:1f:27" value="485d36051f27"/>
      <field name="eth.src.oui" showname="Source OUI: 48:5d:36 (Verizon)" hide="yes" size="3" pos="6" show="4742454" value="485d36"/>
      <field name="eth.src.oui_resolved" showname="Source OUI (resolved): Verizon" hide="yes" size="6" pos="6" show="Verizon" value="485d36051f27"/>
      <field name="eth.addr" showname="Address: Verizon_05:1f:27 (48:5d:36:05:1f:27)" size="6" pos="6" show="48:5d:36:05:1f:27" value="485d36051f27"/>
      <field name="eth.addr_resolved" showname="Address (resolved): Verizon_05:1f:27" hide="yes" size="6" pos="6" show="Verizon_05:1f:27" value="485d36051f27"/>
      <field name="eth.addr.oui" showname="Address OUI: 48:5d:36 (Verizon)" hide="yes" size="3" pos="6" show="4742454" value="485d36"/>
      <field name="eth.addr.oui_resolved" showname="Address OUI (resolved): Verizon" hide="yes" size="6" pos="6" show="Verizon" value="485d36051f27"/>
      <field name="eth.src.lg" showname=".... ..0. .... .... .... .... = LG bit: Globally unique address (factory default)" size="3" pos="6" show="0" value="0" unmaskedvalue="485d36"/>
      <field name="eth.lg" showname=".... ..0. .... .... .... .... = LG bit: Globally unique address (factory default)" hide="yes" size="3" pos="6" show="0" value="0" unmaskedvalue="485d36"/>
      <field name="eth.src.ig" showname=".... ...0 .... .... .... .... = IG bit: Individual address (unicast)" size="3" pos="6" show="0" value="0" unmaskedvalue="485d36"/>
      <field name="eth.ig" showname=".... ...0 .... .... .... .... = IG bit: Individual address (unicast)" hide="yes" size="3" pos="6" show="0" value="0" unmaskedvalue="485d36"/>
    </field>
    <field name="eth.type" showname="Type: IPv4 (0x0800)" size="2" pos="12" show="0x00000800" value="0800"/>
    <field name="eth.padding" showname="Padding: 56e800000000" size="6" pos="54" show="56:e8:00:00:00:00" value="56e800000000"/>
    <field name="eth.fcs" showname="Frame check sequence: 0x00000000 [unverified]" size="4" pos="60" show="0x00000000" value="00000000"/>
    <field name="eth.fcs.status" showname="FCS Status: Unverified" size="0" pos="60" show="2"/>
  </proto>
  <proto name="ip" showname="Internet Protocol Version 4, Src: 52.96.32.178, Dst: 192.168.1.172" size="20" pos="14">
    <field name="ip.version" showname="0100 .... = Version: 4" size="1" pos="14" show="4" value="4" unmaskedvalue="45"/>
    <field name="ip.hdr_len" showname=".... 0101 = Header Length: 20 bytes (5)" size="1" pos="14" show="20" value="45"/>
    <field name="ip.dsfield" showname="Differentiated Services Field: 0x00 (DSCP: CS0, ECN: Not-ECT)" size="1" pos="15" show="0x00000000" value="00">
      <field name="ip.dsfield.dscp" showname="0000 00.. = Differentiated Services Codepoint: Default (0)" size="1" pos="15" show="0" value="0" unmaskedvalue="00"/>
      <field name="ip.dsfield.ecn" showname=".... ..00 = Explicit Congestion Notification: Not ECN-Capable Transport (0)" size="1" pos="15" show="0" value="0" unmaskedvalue="00"/>
    </field>
    <field name="ip.len" showname="Total Length: 40" size="2" pos="16" show="40" value="0028"/>
    <field name="ip.id" showname="Identification: 0x4841 (18497)" size="2" pos="18" show="0x00004841" value="4841"/>
    <field name="ip.flags" showname="Flags: 0x4000, Don&#x27;t fragment" size="2" pos="20" show="0x00004000" value="4000">
      <field name="ip.flags.rb" showname="0... .... .... .... = Reserved bit: Not set" size="2" pos="20" show="0" value="0" unmaskedvalue="4000"/>
      <field name="ip.flags.df" showname=".1.. .... .... .... = Don&#x27;t fragment: Set" size="2" pos="20" show="1" value="1" unmaskedvalue="4000"/>
      <field name="ip.flags.mf" showname="..0. .... .... .... = More fragments: Not set" size="2" pos="20" show="0" value="0" unmaskedvalue="4000"/>
    </field>
    <field name="ip.frag_offset" showname="Fragment offset: 0" size="2" pos="20" show="0" value="4000"/>
    <field name="ip.ttl" showname="Time to live: 245" size="1" pos="22" show="245" value="f5"/>
    <field name="ip.proto" showname="Protocol: TCP (6)" size="1" pos="23" show="6" value="06"/>
    <field name="ip.checksum" showname="Header checksum: 0x2628 [validation disabled]" size="2" pos="24" show="0x00002628" value="2628"/>
    <field name="ip.checksum.status" showname="Header checksum status: Unverified" size="0" pos="24" show="2"/>
    <field name="ip.src" showname="Source: 52.96.32.178" size="4" pos="26" show="52.96.32.178" value="346020b2"/>
    <field name="ip.addr" showname="Source or Destination Address: 52.96.32.178" hide="yes" size="4" pos="26" show="52.96.32.178" value="346020b2"/>
    <field name="ip.src_host" showname="Source Host: 52.96.32.178" hide="yes" size="4" pos="26" show="52.96.32.178" value="346020b2"/>
    <field name="ip.host" showname="Source or Destination Host: 52.96.32.178" hide="yes" size="4" pos="26" show="52.96.32.178" value="346020b2"/>
    <field name="ip.dst" showname="Destination: 192.168.1.172" size="4" pos="30" show="192.168.1.172" value="c0a801ac"/>
    <field name="ip.addr" showname="Source or Destination Address: 192.168.1.172" hide="yes" size="4" pos="30" show="192.168.1.172" value="c0a801ac"/>
    <field name="ip.dst_host" showname="Destination Host: 192.168.1.172" hide="yes" size="4" pos="30" show="192.168.1.172" value="c0a801ac"/>
    <field name="ip.host" showname="Source or Destination Host: 192.168.1.172" hide="yes" size="4" pos="30" show="192.168.1.172" value="c0a801ac"/>
  </proto>
  <proto name="tcp" showname="Transmission Control Protocol, Src Port: 443, Dst Port: 41274, Seq: 1, Ack: 2, Len: 0" size="20" pos="34">
    <field name="tcp.srcport" showname="Source Port: 443" size="2" pos="34" show="443" value="01bb"/>
    <field name="tcp.dstport" showname="Destination Port: 41274" size="2" pos="36" show="41274" value="a13a"/>
    <field name="tcp.port" showname="Source or Destination Port: 443" hide="yes" size="2" pos="34" show="443" value="01bb"/>
    <field name="tcp.port" showname="Source or Destination Port: 41274" hide="yes" size="2" pos="36" show="41274" value="a13a"/>
    <field name="tcp.stream" showname="Stream index: 0" size="0" pos="34" show="0"/>
    <field name="tcp.len" showname="TCP Segment Len: 0" size="1" pos="46" show="0" value="50"/>
    <field name="tcp.seq" showname="Sequence number: 1    (relative sequence number)" size="4" pos="38" show="1" value="09f6897d"/>
    <field name="tcp.seq_raw" showname="Sequence number (raw): 167151997" size="4" pos="38" show="167151997" value="09f6897d"/>
    <field name="tcp.nxtseq" showname="Next sequence number: 1    (relative sequence number)" size="0" pos="34" show="1"/>
    <field name="tcp.ack" showname="Acknowledgment number: 2    (relative ack number)" size="4" pos="42" show="2" value="a9096f23"/>
    <field name="tcp.ack_raw" showname="Acknowledgment number (raw): 2835967779" size="4" pos="42" show="2835967779" value="a9096f23"/>
    <field name="tcp.hdr_len" showname="0101 .... = Header Length: 20 bytes (5)" size="1" pos="46" show="20" value="50"/>
    <field name="tcp.flags" showname="Flags: 0x010 (ACK)" size="2" pos="46" show="0x00000010" value="10" unmaskedvalue="5010">
      <field name="tcp.flags.res" showname="000. .... .... = Reserved: Not set" size="1" pos="46" show="0" value="0" unmaskedvalue="50"/>
      <field name="tcp.flags.ns" showname="...0 .... .... = Nonce: Not set" size="1" pos="46" show="0" value="0" unmaskedvalue="50"/>
      <field name="tcp.flags.cwr" showname=".... 0... .... = Congestion Window Reduced (CWR): Not set" size="1" pos="47" show="0" value="0" unmaskedvalue="10"/>
      <field name="tcp.flags.ecn" showname=".... .0.. .... = ECN-Echo: Not set" size="1" pos="47" show="0" value="0" unmaskedvalue="10"/>
      <field name="tcp.flags.urg" showname=".... ..0. .... = Urgent: Not set" size="1" pos="47" show="0" value="0" unmaskedvalue="10"/>
      <field name="tcp.flags.ack" showname=".... ...1 .... = Acknowledgment: Set" size="1" pos="47" show="1" value="1" unmaskedvalue="10"/>
      <field name="tcp.flags.push" showname=".... .... 0... = Push: Not set" size="1" pos="47" show="0" value="0" unmaskedvalue="10"/>
      <field name="tcp.flags.reset" showname=".... .... .0.. = Reset: Not set" size="1" pos="47" show="0" value="0" unmaskedvalue="10"/>
      <field name="tcp.flags.syn" showname=".... .... ..0. = Syn: Not set" size="1" pos="47" show="0" value="0" unmaskedvalue="10"/>
      <field name="tcp.flags.fin" showname=".... .... ...0 = Fin: Not set" size="1" pos="47" show="0" value="0" unmaskedvalue="10"/>
      <field name="tcp.flags.str" showname="TCP Flags: \xc2\xb7\xc2\xb7\xc2\xb7\xc2\xb7\xc2\xb7\xc2\xb7\xc2\xb7A\xc2\xb7\xc2\xb7\xc2\xb7\xc2\xb7" size="2" pos="46" show="\xc2\xb7\xc2\xb7\xc2\xb7\xc2\xb7\xc2\xb7\xc2\xb7\xc2\xb7A\xc2\xb7\xc2\xb7\xc2\xb7\xc2\xb7" value="5010"/>
    </field>
    <field name="tcp.window_size_value" showname="Window size value: 2048" size="2" pos="48" show="2048" value="0800"/>
    <field name="tcp.window_size" showname="Calculated window size: 2048" size="2" pos="48" show="2048" value="0800"/>
    <field name="tcp.window_size_scalefactor" showname="Window size scaling factor: -1 (unknown)" size="2" pos="48" show="-1" value="0800"/>
    <field name="tcp.checksum" showname="Checksum: 0x41d8 [unverified]" size="2" pos="50" show="0x000041d8" value="41d8"/>
    <field name="tcp.checksum.status" showname="Checksum Status: Unverified" size="0" pos="50" show="2"/>
    <field name="tcp.urgent_pointer" showname="Urgent pointer: 0" size="2" pos="52" show="0" value="0000"/>
    <field name="tcp.analysis" showname="SEQ/ACK analysis" size="0" pos="34" show="" value="">
      <field name="tcp.analysis.flags" showname="TCP Analysis Flags" size="0" pos="34" show="" value="">
        <field name="_ws.expert" showname="Expert Info (Warning/Sequence): ACKed segment that wasn&#x27;t captured (common at capture start)" size="0" pos="34">
          <field name="tcp.analysis.ack_lost_segment" showname="ACKed segment that wasn&#x27;t captured (common at capture start)" size="0" pos="0" show="" value=""/>
          <field name="_ws.expert.message" showname="Message: ACKed segment that wasn&#x27;t captured (common at capture start)" hide="yes" size="0" pos="0" show="ACKed segment that wasn&#x27;t captured (common at capture start)"/>
          <field name="_ws.expert.severity" showname="Severity level: Warning" size="0" pos="0" show="6291456"/>
          <field name="_ws.expert.group" showname="Group: Sequence" size="0" pos="0" show="33554432"/>
        </field>
      </field>
    </field>
    <field name="" show="Timestamps" size="0" pos="34">
      <field name="tcp.time_relative" showname="Time since first frame in this TCP stream: 0.008133544 seconds" size="0" pos="34" show="0.008133544"/>
      <field name="tcp.time_delta" showname="Time since previous frame in this TCP stream: 0.008133544 seconds" size="0" pos="34" show="0.008133544"/>
    </field>
  </proto>
</packet>

<packet>
  <proto name="geninfo" pos="0" showname="General information" size="66">
    <field name="num" pos="0" show="3" showname="Number" value="3" size="66"/>
    <field name="len" pos="0" show="66" showname="Frame Length" value="42" size="66"/>
    <field name="caplen" pos="0" show="66" showname="Captured Length" value="42" size="66"/>
    <field name="timestamp" pos="0" show="Oct 16, 2020 12:33:29.206895197 EDT" showname="Captured Time" value="1602866009.206895197" size="66"/>
  </proto>
  <proto name="frame" showname="Frame 3: 66 bytes on wire (528 bits), 66 bytes captured (528 bits) on interface wlp2s0, id 0" size="66" pos="0">
    <field name="frame.interface_id" showname="Interface id: 0 (wlp2s0)" size="0" pos="0" show="0">
      <field name="frame.interface_name" showname="Interface name: wlp2s0" size="0" pos="0" show="wlp2s0"/>
    </field>
    <field name="frame.encap_type" showname="Encapsulation type: Ethernet (1)" size="0" pos="0" show="1"/>
    <field name="frame.time" showname="Arrival Time: Oct 16, 2020 12:33:29.206895197 EDT" size="0" pos="0" show="Oct 16, 2020 12:33:29.206895197 EDT"/>
    <field name="frame.offset_shift" showname="Time shift for this packet: 0.000000000 seconds" size="0" pos="0" show="0.000000000"/>
    <field name="frame.time_epoch" showname="Epoch Time: 1602866009.206895197 seconds" size="0" pos="0" show="1602866009.206895197"/>
    <field name="frame.time_delta" showname="Time delta from previous captured frame: 2.039951242 seconds" size="0" pos="0" show="2.039951242"/>
    <field name="frame.time_delta_displayed" showname="Time delta from previous displayed frame: 2.039951242 seconds" size="0" pos="0" show="2.039951242"/>
    <field name="frame.time_relative" showname="Time since reference or first frame: 2.048084786 seconds" size="0" pos="0" show="2.048084786"/>
    <field name="frame.number" showname="Frame Number: 3" size="0" pos="0" show="3"/>
    <field name="frame.len" showname="Frame Length: 66 bytes (528 bits)" size="0" pos="0" show="66"/>
    <field name="frame.cap_len" showname="Capture Length: 66 bytes (528 bits)" size="0" pos="0" show="66"/>
    <field name="frame.marked" showname="Frame is marked: False" size="0" pos="0" show="0"/>
    <field name="frame.ignored" showname="Frame is ignored: False" size="0" pos="0" show="0"/>
    <field name="frame.protocols" showname="Protocols in frame: eth:ethertype:ip:tcp" size="0" pos="0" show="eth:ethertype:ip:tcp"/>
    <field name="frame.coloring_rule.name" showname="Coloring Rule Name: TCP" size="0" pos="0" show="TCP"/>
    <field name="frame.coloring_rule.string" showname="Coloring Rule String: tcp" size="0" pos="0" show="tcp"/>
  </proto>
  <proto name="eth" showname="Ethernet II, Src: IntelCor_65:ea:e6 (10:f0:05:65:ea:e6), Dst: Verizon_05:1f:27 (48:5d:36:05:1f:27)" size="14" pos="0">
    <field name="eth.dst" showname="Destination: Verizon_05:1f:27 (48:5d:36:05:1f:27)" size="6" pos="0" show="48:5d:36:05:1f:27" value="485d36051f27">
      <field name="eth.dst_resolved" showname="Destination (resolved): Verizon_05:1f:27" hide="yes" size="6" pos="0" show="Verizon_05:1f:27" value="485d36051f27"/>
      <field name="eth.dst.oui" showname="Destination OUI: 48:5d:36 (Verizon)" hide="yes" size="3" pos="0" show="4742454" value="485d36"/>
      <field name="eth.dst.oui_resolved" showname="Destination OUI (resolved): Verizon" hide="yes" size="6" pos="0" show="Verizon" value="485d36051f27"/>
      <field name="eth.addr" showname="Address: Verizon_05:1f:27 (48:5d:36:05:1f:27)" size="6" pos="0" show="48:5d:36:05:1f:27" value="485d36051f27"/>
      <field name="eth.addr_resolved" showname="Address (resolved): Verizon_05:1f:27" hide="yes" size="6" pos="0" show="Verizon_05:1f:27" value="485d36051f27"/>
      <field name="eth.addr.oui" showname="Address OUI: 48:5d:36 (Verizon)" hide="yes" size="3" pos="0" show="4742454" value="485d36"/>
      <field name="eth.addr.oui_resolved" showname="Address OUI (resolved): Verizon" hide="yes" size="6" pos="0" show="Verizon" value="485d36051f27"/>
      <field name="eth.dst.lg" showname=".... ..0. .... .... .... .... = LG bit: Globally unique address (factory default)" size="3" pos="0" show="0" value="0" unmaskedvalue="485d36"/>
      <field name="eth.lg" showname=".... ..0. .... .... .... .... = LG bit: Globally unique address (factory default)" hide="yes" size="3" pos="0" show="0" value="0" unmaskedvalue="485d36"/>
      <field name="eth.dst.ig" showname=".... ...0 .... .... .... .... = IG bit: Individual address (unicast)" size="3" pos="0" show="0" value="0" unmaskedvalue="485d36"/>
      <field name="eth.ig" showname=".... ...0 .... .... .... .... = IG bit: Individual address (unicast)" hide="yes" size="3" pos="0" show="0" value="0" unmaskedvalue="485d36"/>
    </field>
    <field name="eth.src" showname="Source: IntelCor_65:ea:e6 (10:f0:05:65:ea:e6)" size="6" pos="6" show="10:f0:05:65:ea:e6" value="10f00565eae6">
      <field name="eth.src_resolved" showname="Source (resolved): IntelCor_65:ea:e6" hide="yes" size="6" pos="6" show="IntelCor_65:ea:e6" value="10f00565eae6"/>
      <field name="eth.src.oui" showname="Source OUI: 10:f0:05 (Intel Corporate)" hide="yes" size="3" pos="6" show="1110021" value="10f005"/>
      <field name="eth.src.oui_resolved" showname="Source OUI (resolved): Intel Corporate" hide="yes" size="6" pos="6" show="Intel Corporate" value="10f00565eae6"/>
      <field name="eth.addr" showname="Address: IntelCor_65:ea:e6 (10:f0:05:65:ea:e6)" size="6" pos="6" show="10:f0:05:65:ea:e6" value="10f00565eae6"/>
      <field name="eth.addr_resolved" showname="Address (resolved): IntelCor_65:ea:e6" hide="yes" size="6" pos="6" show="IntelCor_65:ea:e6" value="10f00565eae6"/>
      <field name="eth.addr.oui" showname="Address OUI: 10:f0:05 (Intel Corporate)" hide="yes" size="3" pos="6" show="1110021" value="10f005"/>
      <field name="eth.addr.oui_resolved" showname="Address OUI (resolved): Intel Corporate" hide="yes" size="6" pos="6" show="Intel Corporate" value="10f00565eae6"/>
      <field name="eth.src.lg" showname=".... ..0. .... .... .... .... = LG bit: Globally unique address (factory default)" size="3" pos="6" show="0" value="0" unmaskedvalue="10f005"/>
      <field name="eth.lg" showname=".... ..0. .... .... .... .... = LG bit: Globally unique address (factory default)" hide="yes" size="3" pos="6" show="0" value="0" unmaskedvalue="10f005"/>
      <field name="eth.src.ig" showname=".... ...0 .... .... .... .... = IG bit: Individual address (unicast)" size="3" pos="6" show="0" value="0" unmaskedvalue="10f005"/>
      <field name="eth.ig" showname=".... ...0 .... .... .... .... = IG bit: Individual address (unicast)" hide="yes" size="3" pos="6" show="0" value="0" unmaskedvalue="10f005"/>
    </field>
    <field name="eth.type" showname="Type: IPv4 (0x0800)" size="2" pos="12" show="0x00000800" value="0800"/>
  </proto>
  <proto name="ip" showname="Internet Protocol Version 4, Src: 192.168.1.172, Dst: 52.149.246.39" size="20" pos="14">
    <field name="ip.version" showname="0100 .... = Version: 4" size="1" pos="14" show="4" value="4" unmaskedvalue="45"/>
    <field name="ip.hdr_len" showname=".... 0101 = Header Length: 20 bytes (5)" size="1" pos="14" show="20" value="45"/>
    <field name="ip.dsfield" showname="Differentiated Services Field: 0x00 (DSCP: CS0, ECN: Not-ECT)" size="1" pos="15" show="0x00000000" value="00">
      <field name="ip.dsfield.dscp" showname="0000 00.. = Differentiated Services Codepoint: Default (0)" size="1" pos="15" show="0" value="0" unmaskedvalue="00"/>
      <field name="ip.dsfield.ecn" showname=".... ..00 = Explicit Congestion Notification: Not ECN-Capable Transport (0)" size="1" pos="15" show="0" value="0" unmaskedvalue="00"/>
    </field>
    <field name="ip.len" showname="Total Length: 52" size="2" pos="16" show="52" value="0034"/>
    <field name="ip.id" showname="Identification: 0x146c (5228)" size="2" pos="18" show="0x0000146c" value="146c"/>
    <field name="ip.flags" showname="Flags: 0x4000, Don&#x27;t fragment" size="2" pos="20" show="0x00004000" value="4000">
      <field name="ip.flags.rb" showname="0... .... .... .... = Reserved bit: Not set" size="2" pos="20" show="0" value="0" unmaskedvalue="4000"/>
      <field name="ip.flags.df" showname=".1.. .... .... .... = Don&#x27;t fragment: Set" size="2" pos="20" show="1" value="1" unmaskedvalue="4000"/>
      <field name="ip.flags.mf" showname="..0. .... .... .... = More fragments: Not set" size="2" pos="20" show="0" value="0" unmaskedvalue="4000"/>
    </field>
    <field name="ip.frag_offset" showname="Fragment offset: 0" size="2" pos="20" show="0" value="4000"/>
    <field name="ip.ttl" showname="Time to live: 64" size="1" pos="22" show="64" value="40"/>
    <field name="ip.proto" showname="Protocol: TCP (6)" size="1" pos="23" show="6" value="06"/>
    <field name="ip.checksum" showname="Header checksum: 0x3947 [validation disabled]" size="2" pos="24" show="0x00003947" value="3947"/>
    <field name="ip.checksum.status" showname="Header checksum status: Unverified" size="0" pos="24" show="2"/>
    <field name="ip.src" showname="Source: 192.168.1.172" size="4" pos="26" show="192.168.1.172" value="c0a801ac"/>
    <field name="ip.addr" showname="Source or Destination Address: 192.168.1.172" hide="yes" size="4" pos="26" show="192.168.1.172" value="c0a801ac"/>
    <field name="ip.src_host" showname="Source Host: 192.168.1.172" hide="yes" size="4" pos="26" show="192.168.1.172" value="c0a801ac"/>
    <field name="ip.host" showname="Source or Destination Host: 192.168.1.172" hide="yes" size="4" pos="26" show="192.168.1.172" value="c0a801ac"/>
    <field name="ip.dst" showname="Destination: 52.149.246.39" size="4" pos="30" show="52.149.246.39" value="3495f627"/>
    <field name="ip.addr" showname="Source or Destination Address: 52.149.246.39" hide="yes" size="4" pos="30" show="52.149.246.39" value="3495f627"/>
    <field name="ip.dst_host" showname="Destination Host: 52.149.246.39" hide="yes" size="4" pos="30" show="52.149.246.39" value="3495f627"/>
    <field name="ip.host" showname="Source or Destination Host: 52.149.246.39" hide="yes" size="4" pos="30" show="52.149.246.39" value="3495f627"/>
  </proto>
  <proto name="tcp" showname="Transmission Control Protocol, Src Port: 38118, Dst Port: 443, Seq: 1, Ack: 1, Len: 0" size="32" pos="34">
    <field name="tcp.srcport" showname="Source Port: 38118" size="2" pos="34" show="38118" value="94e6"/>
    <field name="tcp.dstport" showname="Destination Port: 443" size="2" pos="36" show="443" value="01bb"/>
    <field name="tcp.port" showname="Source or Destination Port: 38118" hide="yes" size="2" pos="34" show="38118" value="94e6"/>
    <field name="tcp.port" showname="Source or Destination Port: 443" hide="yes" size="2" pos="36" show="443" value="01bb"/>
    <field name="tcp.stream" showname="Stream index: 1" size="0" pos="34" show="1"/>
    <field name="tcp.len" showname="TCP Segment Len: 0" size="1" pos="46" show="0" value="80"/>
    <field name="tcp.seq" showname="Sequence number: 1    (relative sequence number)" size="4" pos="38" show="1" value="a793b1b0"/>
    <field name="tcp.seq_raw" showname="Sequence number (raw): 2811474352" size="4" pos="38" show="2811474352" value="a793b1b0"/>
    <field name="tcp.nxtseq" showname="Next sequence number: 1    (relative sequence number)" size="0" pos="34" show="1"/>
    <field name="tcp.ack" showname="Acknowledgment number: 1    (relative ack number)" size="4" pos="42" show="1" value="f4a46193"/>
    <field name="tcp.ack_raw" showname="Acknowledgment number (raw): 4104413587" size="4" pos="42" show="4104413587" value="f4a46193"/>
    <field name="tcp.hdr_len" showname="1000 .... = Header Length: 32 bytes (8)" size="1" pos="46" show="32" value="80"/>
    <field name="tcp.flags" showname="Flags: 0x010 (ACK)" size="2" pos="46" show="0x00000010" value="10" unmaskedvalue="8010">
      <field name="tcp.flags.res" showname="000. .... .... = Reserved: Not set" size="1" pos="46" show="0" value="0" unmaskedvalue="80"/>
      <field name="tcp.flags.ns" showname="...0 .... .... = Nonce: Not set" size="1" pos="46" show="0" value="0" unmaskedvalue="80"/>
      <field name="tcp.flags.cwr" showname=".... 0... .... = Congestion Window Reduced (CWR): Not set" size="1" pos="47" show="0" value="0" unmaskedvalue="10"/>
      <field name="tcp.flags.ecn" showname=".... .0.. .... = ECN-Echo: Not set" size="1" pos="47" show="0" value="0" unmaskedvalue="10"/>
      <field name="tcp.flags.urg" showname=".... ..0. .... = Urgent: Not set" size="1" pos="47" show="0" value="0" unmaskedvalue="10"/>
      <field name="tcp.flags.ack" showname=".... ...1 .... = Acknowledgment: Set" size="1" pos="47" show="1" value="1" unmaskedvalue="10"/>
      <field name="tcp.flags.push" showname=".... .... 0... = Push: Not set" size="1" pos="47" show="0" value="0" unmaskedvalue="10"/>
      <field name="tcp.flags.reset" showname=".... .... .0.. = Reset: Not set" size="1" pos="47" show="0" value="0" unmaskedvalue="10"/>
      <field name="tcp.flags.syn" showname=".... .... ..0. = Syn: Not set" size="1" pos="47" show="0" value="0" unmaskedvalue="10"/>
      <field name="tcp.flags.fin" showname=".... .... ...0 = Fin: Not set" size="1" pos="47" show="0" value="0" unmaskedvalue="10"/>
      <field name="tcp.flags.str" showname="TCP Flags: \xc2\xb7\xc2\xb7\xc2\xb7\xc2\xb7\xc2\xb7\xc2\xb7\xc2\xb7A\xc2\xb7\xc2\xb7\xc2\xb7\xc2\xb7" size="2" pos="46" show="\xc2\xb7\xc2\xb7\xc2\xb7\xc2\xb7\xc2\xb7\xc2\xb7\xc2\xb7A\xc2\xb7\xc2\xb7\xc2\xb7\xc2\xb7" value="8010"/>
    </field>
    <field name="tcp.window_size_value" showname="Window size value: 501" size="2" pos="48" show="501" value="01f5"/>
    <field name="tcp.window_size" showname="Calculated window size: 501" size="2" pos="48" show="501" value="01f5"/>
    <field name="tcp.window_size_scalefactor" showname="Window size scaling factor: -1 (unknown)" size="2" pos="48" show="-1" value="01f5"/>
    <field name="tcp.checksum" showname="Checksum: 0xf72c [unverified]" size="2" pos="50" show="0x0000f72c" value="f72c"/>
    <field name="tcp.checksum.status" showname="Checksum Status: Unverified" size="0" pos="50" show="2"/>
    <field name="tcp.urgent_pointer" showname="Urgent pointer: 0" size="2" pos="52" show="0" value="0000"/>
    <field name="tcp.options" showname="Options: (12 bytes), No-Operation (NOP), No-Operation (NOP), Timestamps" size="12" pos="54" show="01:01:08:0a:6e:67:80:66:62:25:f9:78" value="0101080a6e6780666225f978">
      <field name="tcp.options.nop" showname="TCP Option - No-Operation (NOP)" size="1" pos="54" show="01" value="01">
        <field name="tcp.option_kind" showname="Kind: No-Operation (1)" size="1" pos="54" show="1" value="01"/>
      </field>
      <field name="tcp.options.nop" showname="TCP Option - No-Operation (NOP)" size="1" pos="55" show="01" value="01">
        <field name="tcp.option_kind" showname="Kind: No-Operation (1)" size="1" pos="55" show="1" value="01"/>
      </field>
      <field name="tcp.options.timestamp" showname="TCP Option - Timestamps: TSval 1852276838, TSecr 1646655864" size="10" pos="56" show="08:0a:6e:67:80:66:62:25:f9:78" value="080a6e6780666225f978">
        <field name="tcp.option_kind" showname="Kind: Time Stamp Option (8)" size="1" pos="56" show="8" value="08"/>
        <field name="tcp.option_len" showname="Length: 10" size="1" pos="57" show="10" value="0a"/>
        <field name="tcp.options.timestamp.tsval" showname="Timestamp value: 1852276838" size="4" pos="58" show="1852276838" value="6e678066"/>
        <field name="tcp.options.timestamp.tsecr" showname="Timestamp echo reply: 1646655864" size="4" pos="62" show="1646655864" value="6225f978"/>
      </field>
    </field>
    <field name="" show="Timestamps" size="0" pos="34">
      <field name="tcp.time_relative" showname="Time since first frame in this TCP stream: 0.000000000 seconds" size="0" pos="34" show="0.000000000"/>
      <field name="tcp.time_delta" showname="Time since previous frame in this TCP stream: 0.000000000 seconds" size="0" pos="34" show="0.000000000"/>
    </field>
  </proto>
</packet>

<packet>
  <proto name="geninfo" pos="0" showname="General information" size="66">
    <field name="num" pos="0" show="4" showname="Number" value="4" size="66"/>
    <field name="len" pos="0" show="66" showname="Frame Length" value="42" size="66"/>
    <field name="caplen" pos="0" show="66" showname="Captured Length" value="42" size="66"/>
    <field name="timestamp" pos="0" show="Oct 16, 2020 12:33:29.206952142 EDT" showname="Captured Time" value="1602866009.206952142" size="66"/>
  </proto>
  <proto name="frame" showname="Frame 4: 66 bytes on wire (528 bits), 66 bytes captured (528 bits) on interface wlp2s0, id 0" size="66" pos="0">
    <field name="frame.interface_id" showname="Interface id: 0 (wlp2s0)" size="0" pos="0" show="0">
      <field name="frame.interface_name" showname="Interface name: wlp2s0" size="0" pos="0" show="wlp2s0"/>
    </field>
    <field name="frame.encap_type" showname="Encapsulation type: Ethernet (1)" size="0" pos="0" show="1"/>
    <field name="frame.time" showname="Arrival Time: Oct 16, 2020 12:33:29.206952142 EDT" size="0" pos="0" show="Oct 16, 2020 12:33:29.206952142 EDT"/>
    <field name="frame.offset_shift" showname="Time shift for this packet: 0.000000000 seconds" size="0" pos="0" show="0.000000000"/>
    <field name="frame.time_epoch" showname="Epoch Time: 1602866009.206952142 seconds" size="0" pos="0" show="1602866009.206952142"/>
    <field name="frame.time_delta" showname="Time delta from previous captured frame: 0.000056945 seconds" size="0" pos="0" show="0.000056945"/>
    <field name="frame.time_delta_displayed" showname="Time delta from previous displayed frame: 0.000056945 seconds" size="0" pos="0" show="0.000056945"/>
    <field name="frame.time_relative" showname="Time since reference or first frame: 2.048141731 seconds" size="0" pos="0" show="2.048141731"/>
    <field name="frame.number" showname="Frame Number: 4" size="0" pos="0" show="4"/>
    <field name="frame.len" showname="Frame Length: 66 bytes (528 bits)" size="0" pos="0" show="66"/>
    <field name="frame.cap_len" showname="Capture Length: 66 bytes (528 bits)" size="0" pos="0" show="66"/>
    <field name="frame.marked" showname="Frame is marked: False" size="0" pos="0" show="0"/>
    <field name="frame.ignored" showname="Frame is ignored: False" size="0" pos="0" show="0"/>
    <field name="frame.protocols" showname="Protocols in frame: eth:ethertype:ip:tcp" size="0" pos="0" show="eth:ethertype:ip:tcp"/>
    <field name="frame.coloring_rule.name" showname="Coloring Rule Name: TCP" size="0" pos="0" show="TCP"/>
    <field name="frame.coloring_rule.string" showname="Coloring Rule String: tcp" size="0" pos="0" show="tcp"/>
  </proto>
  <proto name="eth" showname="Ethernet II, Src: IntelCor_65:ea:e6 (10:f0:05:65:ea:e6), Dst: Verizon_05:1f:27 (48:5d:36:05:1f:27)" size="14" pos="0">
    <field name="eth.dst" showname="Destination: Verizon_05:1f:27 (48:5d:36:05:1f:27)" size="6" pos="0" show="48:5d:36:05:1f:27" value="485d36051f27">
      <field name="eth.dst_resolved" showname="Destination (resolved): Verizon_05:1f:27" hide="yes" size="6" pos="0" show="Verizon_05:1f:27" value="485d36051f27"/>
      <field name="eth.dst.oui" showname="Destination OUI: 48:5d:36 (Verizon)" hide="yes" size="3" pos="0" show="4742454" value="485d36"/>
      <field name="eth.dst.oui_resolved" showname="Destination OUI (resolved): Verizon" hide="yes" size="6" pos="0" show="Verizon" value="485d36051f27"/>
      <field name="eth.addr" showname="Address: Verizon_05:1f:27 (48:5d:36:05:1f:27)" size="6" pos="0" show="48:5d:36:05:1f:27" value="485d36051f27"/>
      <field name="eth.addr_resolved" showname="Address (resolved): Verizon_05:1f:27" hide="yes" size="6" pos="0" show="Verizon_05:1f:27" value="485d36051f27"/>
      <field name="eth.addr.oui" showname="Address OUI: 48:5d:36 (Verizon)" hide="yes" size="3" pos="0" show="4742454" value="485d36"/>
      <field name="eth.addr.oui_resolved" showname="Address OUI (resolved): Verizon" hide="yes" size="6" pos="0" show="Verizon" value="485d36051f27"/>
      <field name="eth.dst.lg" showname=".... ..0. .... .... .... .... = LG bit: Globally unique address (factory default)" size="3" pos="0" show="0" value="0" unmaskedvalue="485d36"/>
      <field name="eth.lg" showname=".... ..0. .... .... .... .... = LG bit: Globally unique address (factory default)" hide="yes" size="3" pos="0" show="0" value="0" unmaskedvalue="485d36"/>
      <field name="eth.dst.ig" showname=".... ...0 .... .... .... .... = IG bit: Individual address (unicast)" size="3" pos="0" show="0" value="0" unmaskedvalue="485d36"/>
      <field name="eth.ig" showname=".... ...0 .... .... .... .... = IG bit: Individual address (unicast)" hide="yes" size="3" pos="0" show="0" value="0" unmaskedvalue="485d36"/>
    </field>
    <field name="eth.src" showname="Source: IntelCor_65:ea:e6 (10:f0:05:65:ea:e6)" size="6" pos="6" show="10:f0:05:65:ea:e6" value="10f00565eae6">
      <field name="eth.src_resolved" showname="Source (resolved): IntelCor_65:ea:e6" hide="yes" size="6" pos="6" show="IntelCor_65:ea:e6" value="10f00565eae6"/>
      <field name="eth.src.oui" showname="Source OUI: 10:f0:05 (Intel Corporate)" hide="yes" size="3" pos="6" show="1110021" value="10f005"/>
      <field name="eth.src.oui_resolved" showname="Source OUI (resolved): Intel Corporate" hide="yes" size="6" pos="6" show="Intel Corporate" value="10f00565eae6"/>
      <field name="eth.addr" showname="Address: IntelCor_65:ea:e6 (10:f0:05:65:ea:e6)" size="6" pos="6" show="10:f0:05:65:ea:e6" value="10f00565eae6"/>
      <field name="eth.addr_resolved" showname="Address (resolved): IntelCor_65:ea:e6" hide="yes" size="6" pos="6" show="IntelCor_65:ea:e6" value="10f00565eae6"/>
      <field name="eth.addr.oui" showname="Address OUI: 10:f0:05 (Intel Corporate)" hide="yes" size="3" pos="6" show="1110021" value="10f005"/>
      <field name="eth.addr.oui_resolved" showname="Address OUI (resolved): Intel Corporate" hide="yes" size="6" pos="6" show="Intel Corporate" value="10f00565eae6"/>
      <field name="eth.src.lg" showname=".... ..0. .... .... .... .... = LG bit: Globally unique address (factory default)" size="3" pos="6" show="0" value="0" unmaskedvalue="10f005"/>
      <field name="eth.lg" showname=".... ..0. .... .... .... .... = LG bit: Globally unique address (factory default)" hide="yes" size="3" pos="6" show="0" value="0" unmaskedvalue="10f005"/>
      <field name="eth.src.ig" showname=".... ...0 .... .... .... .... = IG bit: Individual address (unicast)" size="3" pos="6" show="0" value="0" unmaskedvalue="10f005"/>
      <field name="eth.ig" showname=".... ...0 .... .... .... .... = IG bit: Individual address (unicast)" hide="yes" size="3" pos="6" show="0" value="0" unmaskedvalue="10f005"/>
    </field>
    <field name="eth.type" showname="Type: IPv4 (0x0800)" size="2" pos="12" show="0x00000800" value="0800"/>
  </proto>
  <proto name="ip" showname="Internet Protocol Version 4, Src: 192.168.1.172, Dst: 52.149.246.247" size="20" pos="14">
    <field name="ip.version" showname="0100 .... = Version: 4" size="1" pos="14" show="4" value="4" unmaskedvalue="45"/>
    <field name="ip.hdr_len" showname=".... 0101 = Header Length: 20 bytes (5)" size="1" pos="14" show="20" value="45"/>
    <field name="ip.dsfield" showname="Differentiated Services Field: 0x00 (DSCP: CS0, ECN: Not-ECT)" size="1" pos="15" show="0x00000000" value="00">
      <field name="ip.dsfield.dscp" showname="0000 00.. = Differentiated Services Codepoint: Default (0)" size="1" pos="15" show="0" value="0" unmaskedvalue="00"/>
      <field name="ip.dsfield.ecn" showname=".... ..00 = Explicit Congestion Notification: Not ECN-Capable Transport (0)" size="1" pos="15" show="0" value="0" unmaskedvalue="00"/>
    </field>
    <field name="ip.len" showname="Total Length: 52" size="2" pos="16" show="52" value="0034"/>
    <field name="ip.id" showname="Identification: 0x2a6c (10860)" size="2" pos="18" show="0x00002a6c" value="2a6c"/>
    <field name="ip.flags" showname="Flags: 0x4000, Don&#x27;t fragment" size="2" pos="20" show="0x00004000" value="4000">
      <field name="ip.flags.rb" showname="0... .... .... .... = Reserved bit: Not set" size="2" pos="20" show="0" value="0" unmaskedvalue="4000"/>
      <field name="ip.flags.df" showname=".1.. .... .... .... = Don&#x27;t fragment: Set" size="2" pos="20" show="1" value="1" unmaskedvalue="4000"/>
      <field name="ip.flags.mf" showname="..0. .... .... .... = More fragments: Not set" size="2" pos="20" show="0" value="0" unmaskedvalue="4000"/>
    </field>
    <field name="ip.frag_offset" showname="Fragment offset: 0" size="2" pos="20" show="0" value="4000"/>
    <field name="ip.ttl" showname="Time to live: 64" size="1" pos="22" show="64" value="40"/>
    <field name="ip.proto" showname="Protocol: TCP (6)" size="1" pos="23" show="6" value="06"/>
    <field name="ip.checksum" showname="Header checksum: 0x2277 [validation disabled]" size="2" pos="24" show="0x00002277" value="2277"/>
    <field name="ip.checksum.status" showname="Header checksum status: Unverified" size="0" pos="24" show="2"/>
    <field name="ip.src" showname="Source: 192.168.1.172" size="4" pos="26" show="192.168.1.172" value="c0a801ac"/>
    <field name="ip.addr" showname="Source or Destination Address: 192.168.1.172" hide="yes" size="4" pos="26" show="192.168.1.172" value="c0a801ac"/>
    <field name="ip.src_host" showname="Source Host: 192.168.1.172" hide="yes" size="4" pos="26" show="192.168.1.172" value="c0a801ac"/>
    <field name="ip.host" showname="Source or Destination Host: 192.168.1.172" hide="yes" size="4" pos="26" show="192.168.1.172" value="c0a801ac"/>
    <field name="ip.dst" showname="Destination: 52.149.246.247" size="4" pos="30" show="52.149.246.247" value="3495f6f7"/>
    <field name="ip.addr" showname="Source or Destination Address: 52.149.246.247" hide="yes" size="4" pos="30" show="52.149.246.247" value="3495f6f7"/>
    <field name="ip.dst_host" showname="Destination Host: 52.149.246.247" hide="yes" size="4" pos="30" show="52.149.246.247" value="3495f6f7"/>
    <field name="ip.host" showname="Source or Destination Host: 52.149.246.247" hide="yes" size="4" pos="30" show="52.149.246.247" value="3495f6f7"/>
  </proto>
  <proto name="tcp" showname="Transmission Control Protocol, Src Port: 40466, Dst Port: 443, Seq: 1, Ack: 1, Len: 0" size="32" pos="34">
    <field name="tcp.srcport" showname="Source Port: 40466" size="2" pos="34" show="40466" value="9e12"/>
    <field name="tcp.dstport" showname="Destination Port: 443" size="2" pos="36" show="443" value="01bb"/>
    <field name="tcp.port" showname="Source or Destination Port: 40466" hide="yes" size="2" pos="34" show="40466" value="9e12"/>
    <field name="tcp.port" showname="Source or Destination Port: 443" hide="yes" size="2" pos="36" show="443" value="01bb"/>
    <field name="tcp.stream" showname="Stream index: 2" size="0" pos="34" show="2"/>
    <field name="tcp.len" showname="TCP Segment Len: 0" size="1" pos="46" show="0" value="80"/>
    <field name="tcp.seq" showname="Sequence number: 1    (relative sequence number)" size="4" pos="38" show="1" value="7a5aaf13"/>
    <field name="tcp.seq_raw" showname="Sequence number (raw): 2052763411" size="4" pos="38" show="2052763411" value="7a5aaf13"/>
    <field name="tcp.nxtseq" showname="Next sequence number: 1    (relative sequence number)" size="0" pos="34" show="1"/>
    <field name="tcp.ack" showname="Acknowledgment number: 1    (relative ack number)" size="4" pos="42" show="1" value="e273e089"/>
    <field name="tcp.ack_raw" showname="Acknowledgment number (raw): 3799244937" size="4" pos="42" show="3799244937" value="e273e089"/>
    <field name="tcp.hdr_len" showname="1000 .... = Header Length: 32 bytes (8)" size="1" pos="46" show="32" value="80"/>
    <field name="tcp.flags" showname="Flags: 0x010 (ACK)" size="2" pos="46" show="0x00000010" value="10" unmaskedvalue="8010">
      <field name="tcp.flags.res" showname="000. .... .... = Reserved: Not set" size="1" pos="46" show="0" value="0" unmaskedvalue="80"/>
      <field name="tcp.flags.ns" showname="...0 .... .... = Nonce: Not set" size="1" pos="46" show="0" value="0" unmaskedvalue="80"/>
      <field name="tcp.flags.cwr" showname=".... 0... .... = Congestion Window Reduced (CWR): Not set" size="1" pos="47" show="0" value="0" unmaskedvalue="10"/>
      <field name="tcp.flags.ecn" showname=".... .0.. .... = ECN-Echo: Not set" size="1" pos="47" show="0" value="0" unmaskedvalue="10"/>
      <field name="tcp.flags.urg" showname=".... ..0. .... = Urgent: Not set" size="1" pos="47" show="0" value="0" unmaskedvalue="10"/>
      <field name="tcp.flags.ack" showname=".... ...1 .... = Acknowledgment: Set" size="1" pos="47" show="1" value="1" unmaskedvalue="10"/>
      <field name="tcp.flags.push" showname=".... .... 0... = Push: Not set" size="1" pos="47" show="0" value="0" unmaskedvalue="10"/>
      <field name="tcp.flags.reset" showname=".... .... .0.. = Reset: Not set" size="1" pos="47" show="0" value="0" unmaskedvalue="10"/>
      <field name="tcp.flags.syn" showname=".... .... ..0. = Syn: Not set" size="1" pos="47" show="0" value="0" unmaskedvalue="10"/>
      <field name="tcp.flags.fin" showname=".... .... ...0 = Fin: Not set" size="1" pos="47" show="0" value="0" unmaskedvalue="10"/>
      <field name="tcp.flags.str" showname="TCP Flags: \xc2\xb7\xc2\xb7\xc2\xb7\xc2\xb7\xc2\xb7\xc2\xb7\xc2\xb7A\xc2\xb7\xc2\xb7\xc2\xb7\xc2\xb7" size="2" pos="46" show="\xc2\xb7\xc2\xb7\xc2\xb7\xc2\xb7\xc2\xb7\xc2\xb7\xc2\xb7A\xc2\xb7\xc2\xb7\xc2\xb7\xc2\xb7" value="8010"/>
    </field>
    <field name="tcp.window_size_value" showname="Window size value: 501" size="2" pos="48" show="501" value="01f5"/>
    <field name="tcp.window_size" showname="Calculated window size: 501" size="2" pos="48" show="501" value="01f5"/>
    <field name="tcp.window_size_scalefactor" showname="Window size scaling factor: -1 (unknown)" size="2" pos="48" show="-1" value="01f5"/>
    <field name="tcp.checksum" showname="Checksum: 0xa789 [unverified]" size="2" pos="50" show="0x0000a789" value="a789"/>
    <field name="tcp.checksum.status" showname="Checksum Status: Unverified" size="0" pos="50" show="2"/>
    <field name="tcp.urgent_pointer" showname="Urgent pointer: 0" size="2" pos="52" show="0" value="0000"/>
    <field name="tcp.options" showname="Options: (12 bytes), No-Operation (NOP), No-Operation (NOP), Timestamps" size="12" pos="54" show="01:01:08:0a:4e:0d:1b:f4:26:05:c3:1d" value="0101080a4e0d1bf42605c31d">
      <field name="tcp.options.nop" showname="TCP Option - No-Operation (NOP)" size="1" pos="54" show="01" value="01">
        <field name="tcp.option_kind" showname="Kind: No-Operation (1)" size="1" pos="54" show="1" value="01"/>
      </field>
      <field name="tcp.options.nop" showname="TCP Option - No-Operation (NOP)" size="1" pos="55" show="01" value="01">
        <field name="tcp.option_kind" showname="Kind: No-Operation (1)" size="1" pos="55" show="1" value="01"/>
      </field>
      <field name="tcp.options.timestamp" showname="TCP Option - Timestamps: TSval 1309481972, TSecr 637911837" size="10" pos="56" show="08:0a:4e:0d:1b:f4:26:05:c3:1d" value="080a4e0d1bf42605c31d">
        <field name="tcp.option_kind" showname="Kind: Time Stamp Option (8)" size="1" pos="56" show="8" value="08"/>
        <field name="tcp.option_len" showname="Length: 10" size="1" pos="57" show="10" value="0a"/>
        <field name="tcp.options.timestamp.tsval" showname="Timestamp value: 1309481972" size="4" pos="58" show="1309481972" value="4e0d1bf4"/>
        <field name="tcp.options.timestamp.tsecr" showname="Timestamp echo reply: 637911837" size="4" pos="62" show="637911837" value="2605c31d"/>
      </field>
    </field>
    <field name="" show="Timestamps" size="0" pos="34">
      <field name="tcp.time_relative" showname="Time since first frame in this TCP stream: 0.000000000 seconds" size="0" pos="34" show="0.000000000"/>
      <field name="tcp.time_delta" showname="Time since previous frame in this TCP stream: 0.000000000 seconds" size="0" pos="34" show="0.000000000"/>
    </field>
  </proto>
</packet>

<packet>
  <proto name="geninfo" pos="0" showname="General information" size="66">
    <field name="num" pos="0" show="5" showname="Number" value="5" size="66"/>
    <field name="len" pos="0" show="66" showname="Frame Length" value="42" size="66"/>
    <field name="caplen" pos="0" show="66" showname="Captured Length" value="42" size="66"/>
    <field name="timestamp" pos="0" show="Oct 16, 2020 12:33:29.215664327 EDT" showname="Captured Time" value="1602866009.215664327" size="66"/>
  </proto>
  <proto name="frame" showname="Frame 5: 66 bytes on wire (528 bits), 66 bytes captured (528 bits) on interface wlp2s0, id 0" size="66" pos="0">
    <field name="frame.interface_id" showname="Interface id: 0 (wlp2s0)" size="0" pos="0" show="0">
      <field name="frame.interface_name" showname="Interface name: wlp2s0" size="0" pos="0" show="wlp2s0"/>
    </field>
    <field name="frame.encap_type" showname="Encapsulation type: Ethernet (1)" size="0" pos="0" show="1"/>
    <field name="frame.time" showname="Arrival Time: Oct 16, 2020 12:33:29.215664327 EDT" size="0" pos="0" show="Oct 16, 2020 12:33:29.215664327 EDT"/>
    <field name="frame.offset_shift" showname="Time shift for this packet: 0.000000000 seconds" size="0" pos="0" show="0.000000000"/>
    <field name="frame.time_epoch" showname="Epoch Time: 1602866009.215664327 seconds" size="0" pos="0" show="1602866009.215664327"/>
    <field name="frame.time_delta" showname="Time delta from previous captured frame: 0.008712185 seconds" size="0" pos="0" show="0.008712185"/>
    <field name="frame.time_delta_displayed" showname="Time delta from previous displayed frame: 0.008712185 seconds" size="0" pos="0" show="0.008712185"/>
    <field name="frame.time_relative" showname="Time since reference or first frame: 2.056853916 seconds" size="0" pos="0" show="2.056853916"/>
    <field name="frame.number" showname="Frame Number: 5" size="0" pos="0" show="5"/>
    <field name="frame.len" showname="Frame Length: 66 bytes (528 bits)" size="0" pos="0" show="66"/>
    <field name="frame.cap_len" showname="Capture Length: 66 bytes (528 bits)" size="0" pos="0" show="66"/>
    <field name="frame.marked" showname="Frame is marked: False" size="0" pos="0" show="0"/>
    <field name="frame.ignored" showname="Frame is ignored: False" size="0" pos="0" show="0"/>
    <field name="frame.protocols" showname="Protocols in frame: eth:ethertype:ip:tcp" size="0" pos="0" show="eth:ethertype:ip:tcp"/>
    <field name="frame.coloring_rule.name" showname="Coloring Rule Name: Bad TCP" size="0" pos="0" show="Bad TCP"/>
    <field name="frame.coloring_rule.string" showname="Coloring Rule String: tcp.analysis.flags &amp;&amp; !tcp.analysis.window_update" size="0" pos="0" show="tcp.analysis.flags &amp;&amp; !tcp.analysis.window_update"/>
  </proto>
  <proto name="eth" showname="Ethernet II, Src: Verizon_05:1f:27 (48:5d:36:05:1f:27), Dst: IntelCor_65:ea:e6 (10:f0:05:65:ea:e6)" size="14" pos="0">
    <field name="eth.dst" showname="Destination: IntelCor_65:ea:e6 (10:f0:05:65:ea:e6)" size="6" pos="0" show="10:f0:05:65:ea:e6" value="10f00565eae6">
      <field name="eth.dst_resolved" showname="Destination (resolved): IntelCor_65:ea:e6" hide="yes" size="6" pos="0" show="IntelCor_65:ea:e6" value="10f00565eae6"/>
      <field name="eth.dst.oui" showname="Destination OUI: 10:f0:05 (Intel Corporate)" hide="yes" size="3" pos="0" show="1110021" value="10f005"/>
      <field name="eth.dst.oui_resolved" showname="Destination OUI (resolved): Intel Corporate" hide="yes" size="6" pos="0" show="Intel Corporate" value="10f00565eae6"/>
      <field name="eth.addr" showname="Address: IntelCor_65:ea:e6 (10:f0:05:65:ea:e6)" size="6" pos="0" show="10:f0:05:65:ea:e6" value="10f00565eae6"/>
      <field name="eth.addr_resolved" showname="Address (resolved): IntelCor_65:ea:e6" hide="yes" size="6" pos="0" show="IntelCor_65:ea:e6" value="10f00565eae6"/>
      <field name="eth.addr.oui" showname="Address OUI: 10:f0:05 (Intel Corporate)" hide="yes" size="3" pos="0" show="1110021" value="10f005"/>
      <field name="eth.addr.oui_resolved" showname="Address OUI (resolved): Intel Corporate" hide="yes" size="6" pos="0" show="Intel Corporate" value="10f00565eae6"/>
      <field name="eth.dst.lg" showname=".... ..0. .... .... .... .... = LG bit: Globally unique address (factory default)" size="3" pos="0" show="0" value="0" unmaskedvalue="10f005"/>
      <field name="eth.lg" showname=".... ..0. .... .... .... .... = LG bit: Globally unique address (factory default)" hide="yes" size="3" pos="0" show="0" value="0" unmaskedvalue="10f005"/>
      <field name="eth.dst.ig" showname=".... ...0 .... .... .... .... = IG bit: Individual address (unicast)" size="3" pos="0" show="0" value="0" unmaskedvalue="10f005"/>
      <field name="eth.ig" showname=".... ...0 .... .... .... .... = IG bit: Individual address (unicast)" hide="yes" size="3" pos="0" show="0" value="0" unmaskedvalue="10f005"/>
    </field>
    <field name="eth.src" showname="Source: Verizon_05:1f:27 (48:5d:36:05:1f:27)" size="6" pos="6" show="48:5d:36:05:1f:27" value="485d36051f27">
      <field name="eth.src_resolved" showname="Source (resolved): Verizon_05:1f:27" hide="yes" size="6" pos="6" show="Verizon_05:1f:27" value="485d36051f27"/>
      <field name="eth.src.oui" showname="Source OUI: 48:5d:36 (Verizon)" hide="yes" size="3" pos="6" show="4742454" value="485d36"/>
      <field name="eth.src.oui_resolved" showname="Source OUI (resolved): Verizon" hide="yes" size="6" pos="6" show="Verizon" value="485d36051f27"/>
      <field name="eth.addr" showname="Address: Verizon_05:1f:27 (48:5d:36:05:1f:27)" size="6" pos="6" show="48:5d:36:05:1f:27" value="485d36051f27"/>
      <field name="eth.addr_resolved" showname="Address (resolved): Verizon_05:1f:27" hide="yes" size="6" pos="6" show="Verizon_05:1f:27" value="485d36051f27"/>
      <field name="eth.addr.oui" showname="Address OUI: 48:5d:36 (Verizon)" hide="yes" size="3" pos="6" show="4742454" value="485d36"/>
      <field name="eth.addr.oui_resolved" showname="Address OUI (resolved): Verizon" hide="yes" size="6" pos="6" show="Verizon" value="485d36051f27"/>
      <field name="eth.src.lg" showname=".... ..0. .... .... .... .... = LG bit: Globally unique address (factory default)" size="3" pos="6" show="0" value="0" unmaskedvalue="485d36"/>
      <field name="eth.lg" showname=".... ..0. .... .... .... .... = LG bit: Globally unique address (factory default)" hide="yes" size="3" pos="6" show="0" value="0" unmaskedvalue="485d36"/>
      <field name="eth.src.ig" showname=".... ...0 .... .... .... .... = IG bit: Individual address (unicast)" size="3" pos="6" show="0" value="0" unmaskedvalue="485d36"/>
      <field name="eth.ig" showname=".... ...0 .... .... .... .... = IG bit: Individual address (unicast)" hide="yes" size="3" pos="6" show="0" value="0" unmaskedvalue="485d36"/>
    </field>
    <field name="eth.type" showname="Type: IPv4 (0x0800)" size="2" pos="12" show="0x00000800" value="0800"/>
  </proto>
  <proto name="ip" showname="Internet Protocol Version 4, Src: 52.149.246.39, Dst: 192.168.1.172" size="20" pos="14">
    <field name="ip.version" showname="0100 .... = Version: 4" size="1" pos="14" show="4" value="4" unmaskedvalue="45"/>
    <field name="ip.hdr_len" showname=".... 0101 = Header Length: 20 bytes (5)" size="1" pos="14" show="20" value="45"/>
    <field name="ip.dsfield" showname="Differentiated Services Field: 0x00 (DSCP: CS0, ECN: Not-ECT)" size="1" pos="15" show="0x00000000" value="00">
      <field name="ip.dsfield.dscp" showname="0000 00.. = Differentiated Services Codepoint: Default (0)" size="1" pos="15" show="0" value="0" unmaskedvalue="00"/>
      <field name="ip.dsfield.ecn" showname=".... ..00 = Explicit Congestion Notification: Not ECN-Capable Transport (0)" size="1" pos="15" show="0" value="0" unmaskedvalue="00"/>
    </field>
    <field name="ip.len" showname="Total Length: 52" size="2" pos="16" show="52" value="0034"/>
    <field name="ip.id" showname="Identification: 0x1a19 (6681)" size="2" pos="18" show="0x00001a19" value="1a19"/>
    <field name="ip.flags" showname="Flags: 0x4000, Don&#x27;t fragment" size="2" pos="20" show="0x00004000" value="4000">
      <field name="ip.flags.rb" showname="0... .... .... .... = Reserved bit: Not set" size="2" pos="20" show="0" value="0" unmaskedvalue="4000"/>
      <field name="ip.flags.df" showname=".1.. .... .... .... = Don&#x27;t fragment: Set" size="2" pos="20" show="1" value="1" unmaskedvalue="4000"/>
      <field name="ip.flags.mf" showname="..0. .... .... .... = More fragments: Not set" size="2" pos="20" show="0" value="0" unmaskedvalue="4000"/>
    </field>
    <field name="ip.frag_offset" showname="Fragment offset: 0" size="2" pos="20" show="0" value="4000"/>
    <field name="ip.ttl" showname="Time to live: 54" size="1" pos="22" show="54" value="36"/>
    <field name="ip.proto" showname="Protocol: TCP (6)" size="1" pos="23" show="6" value="06"/>
    <field name="ip.checksum" showname="Header checksum: 0x3d9a [validation disabled]" size="2" pos="24" show="0x00003d9a" value="3d9a"/>
    <field name="ip.checksum.status" showname="Header checksum status: Unverified" size="0" pos="24" show="2"/>
    <field name="ip.src" showname="Source: 52.149.246.39" size="4" pos="26" show="52.149.246.39" value="3495f627"/>
    <field name="ip.addr" showname="Source or Destination Address: 52.149.246.39" hide="yes" size="4" pos="26" show="52.149.246.39" value="3495f627"/>
    <field name="ip.src_host" showname="Source Host: 52.149.246.39" hide="yes" size="4" pos="26" show="52.149.246.39" value="3495f627"/>
    <field name="ip.host" showname="Source or Destination Host: 52.149.246.39" hide="yes" size="4" pos="26" show="52.149.246.39" value="3495f627"/>
    <field name="ip.dst" showname="Destination: 192.168.1.172" size="4" pos="30" show="192.168.1.172" value="c0a801ac"/>
    <field name="ip.addr" showname="Source or Destination Address: 192.168.1.172" hide="yes" size="4" pos="30" show="192.168.1.172" value="c0a801ac"/>
    <field name="ip.dst_host" showname="Destination Host: 192.168.1.172" hide="yes" size="4" pos="30" show="192.168.1.172" value="c0a801ac"/>
    <field name="ip.host" showname="Source or Destination Host: 192.168.1.172" hide="yes" size="4" pos="30" show="192.168.1.172" value="c0a801ac"/>
  </proto>
  <proto name="tcp" showname="Transmission Control Protocol, Src Port: 443, Dst Port: 38118, Seq: 1, Ack: 2, Len: 0" size="32" pos="34">
    <field name="tcp.srcport" showname="Source Port: 443" size="2" pos="34" show="443" value="01bb"/>
    <field name="tcp.dstport" showname="Destination Port: 38118" size="2" pos="36" show="38118" value="94e6"/>
    <field name="tcp.port" showname="Source or Destination Port: 443" hide="yes" size="2" pos="34" show="443" value="01bb"/>
    <field name="tcp.port" showname="Source or Destination Port: 38118" hide="yes" size="2" pos="36" show="38118" value="94e6"/>
    <field name="tcp.stream" showname="Stream index: 1" size="0" pos="34" show="1"/>
    <field name="tcp.len" showname="TCP Segment Len: 0" size="1" pos="46" show="0" value="80"/>
    <field name="tcp.seq" showname="Sequence number: 1    (relative sequence number)" size="4" pos="38" show="1" value="f4a46193"/>
    <field name="tcp.seq_raw" showname="Sequence number (raw): 4104413587" size="4" pos="38" show="4104413587" value="f4a46193"/>
    <field name="tcp.nxtseq" showname="Next sequence number: 1    (relative sequence number)" size="0" pos="34" show="1"/>
    <field name="tcp.ack" showname="Acknowledgment number: 2    (relative ack number)" size="4" pos="42" show="2" value="a793b1b1"/>
    <field name="tcp.ack_raw" showname="Acknowledgment number (raw): 2811474353" size="4" pos="42" show="2811474353" value="a793b1b1"/>
    <field name="tcp.hdr_len" showname="1000 .... = Header Length: 32 bytes (8)" size="1" pos="46" show="32" value="80"/>
    <field name="tcp.flags" showname="Flags: 0x010 (ACK)" size="2" pos="46" show="0x00000010" value="10" unmaskedvalue="8010">
      <field name="tcp.flags.res" showname="000. .... .... = Reserved: Not set" size="1" pos="46" show="0" value="0" unmaskedvalue="80"/>
      <field name="tcp.flags.ns" showname="...0 .... .... = Nonce: Not set" size="1" pos="46" show="0" value="0" unmaskedvalue="80"/>
      <field name="tcp.flags.cwr" showname=".... 0... .... = Congestion Window Reduced (CWR): Not set" size="1" pos="47" show="0" value="0" unmaskedvalue="10"/>
      <field name="tcp.flags.ecn" showname=".... .0.. .... = ECN-Echo: Not set" size="1" pos="47" show="0" value="0" unmaskedvalue="10"/>
      <field name="tcp.flags.urg" showname=".... ..0. .... = Urgent: Not set" size="1" pos="47" show="0" value="0" unmaskedvalue="10"/>
      <field name="tcp.flags.ack" showname=".... ...1 .... = Acknowledgment: Set" size="1" pos="47" show="1" value="1" unmaskedvalue="10"/>
      <field name="tcp.flags.push" showname=".... .... 0... = Push: Not set" size="1" pos="47" show="0" value="0" unmaskedvalue="10"/>
      <field name="tcp.flags.reset" showname=".... .... .0.. = Reset: Not set" size="1" pos="47" show="0" value="0" unmaskedvalue="10"/>
      <field name="tcp.flags.syn" showname=".... .... ..0. = Syn: Not set" size="1" pos="47" show="0" value="0" unmaskedvalue="10"/>
      <field name="tcp.flags.fin" showname=".... .... ...0 = Fin: Not set" size="1" pos="47" show="0" value="0" unmaskedvalue="10"/>
      <field name="tcp.flags.str" showname="TCP Flags: \xc2\xb7\xc2\xb7\xc2\xb7\xc2\xb7\xc2\xb7\xc2\xb7\xc2\xb7A\xc2\xb7\xc2\xb7\xc2\xb7\xc2\xb7" size="2" pos="46" show="\xc2\xb7\xc2\xb7\xc2\xb7\xc2\xb7\xc2\xb7\xc2\xb7\xc2\xb7A\xc2\xb7\xc2\xb7\xc2\xb7\xc2\xb7" value="8010"/>
    </field>
    <field name="tcp.window_size_value" showname="Window size value: 330" size="2" pos="48" show="330" value="014a"/>
    <field name="tcp.window_size" showname="Calculated window size: 330" size="2" pos="48" show="330" value="014a"/>
    <field name="tcp.window_size_scalefactor" showname="Window size scaling factor: -1 (unknown)" size="2" pos="48" show="-1" value="014a"/>
    <field name="tcp.checksum" showname="Checksum: 0x5b5b [unverified]" size="2" pos="50" show="0x00005b5b" value="5b5b"/>
    <field name="tcp.checksum.status" showname="Checksum Status: Unverified" size="0" pos="50" show="2"/>
    <field name="tcp.urgent_pointer" showname="Urgent pointer: 0" size="2" pos="52" show="0" value="0000"/>
    <field name="tcp.options" showname="Options: (12 bytes), No-Operation (NOP), No-Operation (NOP), Timestamps" size="12" pos="54" show="01:01:08:0a:62:26:a9:78:6e:65:6c:e3" value="0101080a6226a9786e656ce3">
      <field name="tcp.options.nop" showname="TCP Option - No-Operation (NOP)" size="1" pos="54" show="01" value="01">
        <field name="tcp.option_kind" showname="Kind: No-Operation (1)" size="1" pos="54" show="1" value="01"/>
      </field>
      <field name="tcp.options.nop" showname="TCP Option - No-Operation (NOP)" size="1" pos="55" show="01" value="01">
        <field name="tcp.option_kind" showname="Kind: No-Operation (1)" size="1" pos="55" show="1" value="01"/>
      </field>
      <field name="tcp.options.timestamp" showname="TCP Option - Timestamps: TSval 1646700920, TSecr 1852140771" size="10" pos="56" show="08:0a:62:26:a9:78:6e:65:6c:e3" value="080a6226a9786e656ce3">
        <field name="tcp.option_kind" showname="Kind: Time Stamp Option (8)" size="1" pos="56" show="8" value="08"/>
        <field name="tcp.option_len" showname="Length: 10" size="1" pos="57" show="10" value="0a"/>
        <field name="tcp.options.timestamp.tsval" showname="Timestamp value: 1646700920" size="4" pos="58" show="1646700920" value="6226a978"/>
        <field name="tcp.options.timestamp.tsecr" showname="Timestamp echo reply: 1852140771" size="4" pos="62" show="1852140771" value="6e656ce3"/>
      </field>
    </field>
    <field name="tcp.analysis" showname="SEQ/ACK analysis" size="0" pos="34" show="" value="">
      <field name="tcp.analysis.flags" showname="TCP Analysis Flags" size="0" pos="34" show="" value="">
        <field name="_ws.expert" showname="Expert Info (Warning/Sequence): ACKed segment that wasn&#x27;t captured (common at capture start)" size="0" pos="34">
          <field name="tcp.analysis.ack_lost_segment" showname="ACKed segment that wasn&#x27;t captured (common at capture start)" size="0" pos="0" show="" value=""/>
          <field name="_ws.expert.message" showname="Message: ACKed segment that wasn&#x27;t captured (common at capture start)" hide="yes" size="0" pos="0" show="ACKed segment that wasn&#x27;t captured (common at capture start)"/>
          <field name="_ws.expert.severity" showname="Severity level: Warning" size="0" pos="0" show="6291456"/>
          <field name="_ws.expert.group" showname="Group: Sequence" size="0" pos="0" show="33554432"/>
        </field>
      </field>
    </field>
    <field name="" show="Timestamps" size="0" pos="34">
      <field name="tcp.time_relative" showname="Time since first frame in this TCP stream: 0.008769130 seconds" size="0" pos="34" show="0.008769130"/>
      <field name="tcp.time_delta" showname="Time since previous frame in this TCP stream: 0.008769130 seconds" size="0" pos="34" show="0.008769130"/>
    </field>
  </proto>
</packet>

<packet>
  <proto name="geninfo" pos="0" showname="General information" size="66">
    <field name="num" pos="0" show="6" showname="Number" value="6" size="66"/>
    <field name="len" pos="0" show="66" showname="Frame Length" value="42" size="66"/>
    <field name="caplen" pos="0" show="66" showname="Captured Length" value="42" size="66"/>
    <field name="timestamp" pos="0" show="Oct 16, 2020 12:33:29.216218259 EDT" showname="Captured Time" value="1602866009.216218259" size="66"/>
  </proto>
  <proto name="frame" showname="Frame 6: 66 bytes on wire (528 bits), 66 bytes captured (528 bits) on interface wlp2s0, id 0" size="66" pos="0">
    <field name="frame.interface_id" showname="Interface id: 0 (wlp2s0)" size="0" pos="0" show="0">
      <field name="frame.interface_name" showname="Interface name: wlp2s0" size="0" pos="0" show="wlp2s0"/>
    </field>
    <field name="frame.encap_type" showname="Encapsulation type: Ethernet (1)" size="0" pos="0" show="1"/>
    <field name="frame.time" showname="Arrival Time: Oct 16, 2020 12:33:29.216218259 EDT" size="0" pos="0" show="Oct 16, 2020 12:33:29.216218259 EDT"/>
    <field name="frame.offset_shift" showname="Time shift for this packet: 0.000000000 seconds" size="0" pos="0" show="0.000000000"/>
    <field name="frame.time_epoch" showname="Epoch Time: 1602866009.216218259 seconds" size="0" pos="0" show="1602866009.216218259"/>
    <field name="frame.time_delta" showname="Time delta from previous captured frame: 0.000553932 seconds" size="0" pos="0" show="0.000553932"/>
    <field name="frame.time_delta_displayed" showname="Time delta from previous displayed frame: 0.000553932 seconds" size="0" pos="0" show="0.000553932"/>
    <field name="frame.time_relative" showname="Time since reference or first frame: 2.057407848 seconds" size="0" pos="0" show="2.057407848"/>
    <field name="frame.number" showname="Frame Number: 6" size="0" pos="0" show="6"/>
    <field name="frame.len" showname="Frame Length: 66 bytes (528 bits)" size="0" pos="0" show="66"/>
    <field name="frame.cap_len" showname="Capture Length: 66 bytes (528 bits)" size="0" pos="0" show="66"/>
    <field name="frame.marked" showname="Frame is marked: False" size="0" pos="0" show="0"/>
    <field name="frame.ignored" showname="Frame is ignored: False" size="0" pos="0" show="0"/>
    <field name="frame.protocols" showname="Protocols in frame: eth:ethertype:ip:tcp" size="0" pos="0" show="eth:ethertype:ip:tcp"/>
    <field name="frame.coloring_rule.name" showname="Coloring Rule Name: Bad TCP" size="0" pos="0" show="Bad TCP"/>
    <field name="frame.coloring_rule.string" showname="Coloring Rule String: tcp.analysis.flags &amp;&amp; !tcp.analysis.window_update" size="0" pos="0" show="tcp.analysis.flags &amp;&amp; !tcp.analysis.window_update"/>
  </proto>
  <proto name="eth" showname="Ethernet II, Src: Verizon_05:1f:27 (48:5d:36:05:1f:27), Dst: IntelCor_65:ea:e6 (10:f0:05:65:ea:e6)" size="14" pos="0">
    <field name="eth.dst" showname="Destination: IntelCor_65:ea:e6 (10:f0:05:65:ea:e6)" size="6" pos="0" show="10:f0:05:65:ea:e6" value="10f00565eae6">
      <field name="eth.dst_resolved" showname="Destination (resolved): IntelCor_65:ea:e6" hide="yes" size="6" pos="0" show="IntelCor_65:ea:e6" value="10f00565eae6"/>
      <field name="eth.dst.oui" showname="Destination OUI: 10:f0:05 (Intel Corporate)" hide="yes" size="3" pos="0" show="1110021" value="10f005"/>
      <field name="eth.dst.oui_resolved" showname="Destination OUI (resolved): Intel Corporate" hide="yes" size="6" pos="0" show="Intel Corporate" value="10f00565eae6"/>
      <field name="eth.addr" showname="Address: IntelCor_65:ea:e6 (10:f0:05:65:ea:e6)" size="6" pos="0" show="10:f0:05:65:ea:e6" value="10f00565eae6"/>
      <field name="eth.addr_resolved" showname="Address (resolved): IntelCor_65:ea:e6" hide="yes" size="6" pos="0" show="IntelCor_65:ea:e6" value="10f00565eae6"/>
      <field name="eth.addr.oui" showname="Address OUI: 10:f0:05 (Intel Corporate)" hide="yes" size="3" pos="0" show="1110021" value="10f005"/>
      <field name="eth.addr.oui_resolved" showname="Address OUI (resolved): Intel Corporate" hide="yes" size="6" pos="0" show="Intel Corporate" value="10f00565eae6"/>
      <field name="eth.dst.lg" showname=".... ..0. .... .... .... .... = LG bit: Globally unique address (factory default)" size="3" pos="0" show="0" value="0" unmaskedvalue="10f005"/>
      <field name="eth.lg" showname=".... ..0. .... .... .... .... = LG bit: Globally unique address (factory default)" hide="yes" size="3" pos="0" show="0" value="0" unmaskedvalue="10f005"/>
      <field name="eth.dst.ig" showname=".... ...0 .... .... .... .... = IG bit: Individual address (unicast)" size="3" pos="0" show="0" value="0" unmaskedvalue="10f005"/>
      <field name="eth.ig" showname=".... ...0 .... .... .... .... = IG bit: Individual address (unicast)" hide="yes" size="3" pos="0" show="0" value="0" unmaskedvalue="10f005"/>
    </field>
    <field name="eth.src" showname="Source: Verizon_05:1f:27 (48:5d:36:05:1f:27)" size="6" pos="6" show="48:5d:36:05:1f:27" value="485d36051f27">
      <field name="eth.src_resolved" showname="Source (resolved): Verizon_05:1f:27" hide="yes" size="6" pos="6" show="Verizon_05:1f:27" value="485d36051f27"/>
      <field name="eth.src.oui" showname="Source OUI: 48:5d:36 (Verizon)" hide="yes" size="3" pos="6" show="4742454" value="485d36"/>
      <field name="eth.src.oui_resolved" showname="Source OUI (resolved): Verizon" hide="yes" size="6" pos="6" show="Verizon" value="485d36051f27"/>
      <field name="eth.addr" showname="Address: Verizon_05:1f:27 (48:5d:36:05:1f:27)" size="6" pos="6" show="48:5d:36:05:1f:27" value="485d36051f27"/>
      <field name="eth.addr_resolved" showname="Address (resolved): Verizon_05:1f:27" hide="yes" size="6" pos="6" show="Verizon_05:1f:27" value="485d36051f27"/>
      <field name="eth.addr.oui" showname="Address OUI: 48:5d:36 (Verizon)" hide="yes" size="3" pos="6" show="4742454" value="485d36"/>
      <field name="eth.addr.oui_resolved" showname="Address OUI (resolved): Verizon" hide="yes" size="6" pos="6" show="Verizon" value="485d36051f27"/>
      <field name="eth.src.lg" showname=".... ..0. .... .... .... .... = LG bit: Globally unique address (factory default)" size="3" pos="6" show="0" value="0" unmaskedvalue="485d36"/>
      <field name="eth.lg" showname=".... ..0. .... .... .... .... = LG bit: Globally unique address (factory default)" hide="yes" size="3" pos="6" show="0" value="0" unmaskedvalue="485d36"/>
      <field name="eth.src.ig" showname=".... ...0 .... .... .... .... = IG bit: Individual address (unicast)" size="3" pos="6" show="0" value="0" unmaskedvalue="485d36"/>
      <field name="eth.ig" showname=".... ...0 .... .... .... .... = IG bit: Individual address (unicast)" hide="yes" size="3" pos="6" show="0" value="0" unmaskedvalue="485d36"/>
    </field>
    <field name="eth.type" showname="Type: IPv4 (0x0800)" size="2" pos="12" show="0x00000800" value="0800"/>
  </proto>
  <proto name="ip" showname="Internet Protocol Version 4, Src: 52.149.246.247, Dst: 192.168.1.172" size="20" pos="14">
    <field name="ip.version" showname="0100 .... = Version: 4" size="1" pos="14" show="4" value="4" unmaskedvalue="45"/>
    <field name="ip.hdr_len" showname=".... 0101 = Header Length: 20 bytes (5)" size="1" pos="14" show="20" value="45"/>
    <field name="ip.dsfield" showname="Differentiated Services Field: 0x00 (DSCP: CS0, ECN: Not-ECT)" size="1" pos="15" show="0x00000000" value="00">
      <field name="ip.dsfield.dscp" showname="0000 00.. = Differentiated Services Codepoint: Default (0)" size="1" pos="15" show="0" value="0" unmaskedvalue="00"/>
      <field name="ip.dsfield.ecn" showname=".... ..00 = Explicit Congestion Notification: Not ECN-Capable Transport (0)" size="1" pos="15" show="0" value="0" unmaskedvalue="00"/>
    </field>
    <field name="ip.len" showname="Total Length: 52" size="2" pos="16" show="52" value="0034"/>
    <field name="ip.id" showname="Identification: 0xdefe (57086)" size="2" pos="18" show="0x0000defe" value="defe"/>
    <field name="ip.flags" showname="Flags: 0x4000, Don&#x27;t fragment" size="2" pos="20" show="0x00004000" value="4000">
      <field name="ip.flags.rb" showname="0... .... .... .... = Reserved bit: Not set" size="2" pos="20" show="0" value="0" unmaskedvalue="4000"/>
      <field name="ip.flags.df" showname=".1.. .... .... .... = Don&#x27;t fragment: Set" size="2" pos="20" show="1" value="1" unmaskedvalue="4000"/>
      <field name="ip.flags.mf" showname="..0. .... .... .... = More fragments: Not set" size="2" pos="20" show="0" value="0" unmaskedvalue="4000"/>
    </field>
    <field name="ip.frag_offset" showname="Fragment offset: 0" size="2" pos="20" show="0" value="4000"/>
    <field name="ip.ttl" showname="Time to live: 54" size="1" pos="22" show="54" value="36"/>
    <field name="ip.proto" showname="Protocol: TCP (6)" size="1" pos="23" show="6" value="06"/>
    <field name="ip.checksum" showname="Header checksum: 0x77e4 [validation disabled]" size="2" pos="24" show="0x000077e4" value="77e4"/>
    <field name="ip.checksum.status" showname="Header checksum status: Unverified" size="0" pos="24" show="2"/>
    <field name="ip.src" showname="Source: 52.149.246.247" size="4" pos="26" show="52.149.246.247" value="3495f6f7"/>
    <field name="ip.addr" showname="Source or Destination Address: 52.149.246.247" hide="yes" size="4" pos="26" show="52.149.246.247" value="3495f6f7"/>
    <field name="ip.src_host" showname="Source Host: 52.149.246.247" hide="yes" size="4" pos="26" show="52.149.246.247" value="3495f6f7"/>
    <field name="ip.host" showname="Source or Destination Host: 52.149.246.247" hide="yes" size="4" pos="26" show="52.149.246.247" value="3495f6f7"/>
    <field name="ip.dst" showname="Destination: 192.168.1.172" size="4" pos="30" show="192.168.1.172" value="c0a801ac"/>
    <field name="ip.addr" showname="Source or Destination Address: 192.168.1.172" hide="yes" size="4" pos="30" show="192.168.1.172" value="c0a801ac"/>
    <field name="ip.dst_host" showname="Destination Host: 192.168.1.172" hide="yes" size="4" pos="30" show="192.168.1.172" value="c0a801ac"/>
    <field name="ip.host" showname="Source or Destination Host: 192.168.1.172" hide="yes" size="4" pos="30" show="192.168.1.172" value="c0a801ac"/>
  </proto>
  <proto name="tcp" showname="Transmission Control Protocol, Src Port: 443, Dst Port: 40466, Seq: 1, Ack: 2, Len: 0" size="32" pos="34">
    <field name="tcp.srcport" showname="Source Port: 443" size="2" pos="34" show="443" value="01bb"/>
    <field name="tcp.dstport" showname="Destination Port: 40466" size="2" pos="36" show="40466" value="9e12"/>
    <field name="tcp.port" showname="Source or Destination Port: 443" hide="yes" size="2" pos="34" show="443" value="01bb"/>
    <field name="tcp.port" showname="Source or Destination Port: 40466" hide="yes" size="2" pos="36" show="40466" value="9e12"/>
    <field name="tcp.stream" showname="Stream index: 2" size="0" pos="34" show="2"/>
    <field name="tcp.len" showname="TCP Segment Len: 0" size="1" pos="46" show="0" value="80"/>
    <field name="tcp.seq" showname="Sequence number: 1    (relative sequence number)" size="4" pos="38" show="1" value="e273e089"/>
    <field name="tcp.seq_raw" showname="Sequence number (raw): 3799244937" size="4" pos="38" show="3799244937" value="e273e089"/>
    <field name="tcp.nxtseq" showname="Next sequence number: 1    (relative sequence number)" size="0" pos="34" show="1"/>
    <field name="tcp.ack" showname="Acknowledgment number: 2    (relative ack number)" size="4" pos="42" show="2" value="7a5aaf14"/>
    <field name="tcp.ack_raw" showname="Acknowledgment number (raw): 2052763412" size="4" pos="42" show="2052763412" value="7a5aaf14"/>
    <field name="tcp.hdr_len" showname="1000 .... = Header Length: 32 bytes (8)" size="1" pos="46" show="32" value="80"/>
    <field name="tcp.flags" showname="Flags: 0x010 (ACK)" size="2" pos="46" show="0x00000010" value="10" unmaskedvalue="8010">
      <field name="tcp.flags.res" showname="000. .... .... = Reserved: Not set" size="1" pos="46" show="0" value="0" unmaskedvalue="80"/>
      <field name="tcp.flags.ns" showname="...0 .... .... = Nonce: Not set" size="1" pos="46" show="0" value="0" unmaskedvalue="80"/>
      <field name="tcp.flags.cwr" showname=".... 0... .... = Congestion Window Reduced (CWR): Not set" size="1" pos="47" show="0" value="0" unmaskedvalue="10"/>
      <field name="tcp.flags.ecn" showname=".... .0.. .... = ECN-Echo: Not set" size="1" pos="47" show="0" value="0" unmaskedvalue="10"/>
      <field name="tcp.flags.urg" showname=".... ..0. .... = Urgent: Not set" size="1" pos="47" show="0" value="0" unmaskedvalue="10"/>
      <field name="tcp.flags.ack" showname=".... ...1 .... = Acknowledgment: Set" size="1" pos="47" show="1" value="1" unmaskedvalue="10"/>
      <field name="tcp.flags.push" showname=".... .... 0... = Push: Not set" size="1" pos="47" show="0" value="0" unmaskedvalue="10"/>
      <field name="tcp.flags.reset" showname=".... .... .0.. = Reset: Not set" size="1" pos="47" show="0" value="0" unmaskedvalue="10"/>
      <field name="tcp.flags.syn" showname=".... .... ..0. = Syn: Not set" size="1" pos="47" show="0" value="0" unmaskedvalue="10"/>
      <field name="tcp.flags.fin" showname=".... .... ...0 = Fin: Not set" size="1" pos="47" show="0" value="0" unmaskedvalue="10"/>
      <field name="tcp.flags.str" showname="TCP Flags: \xc2\xb7\xc2\xb7\xc2\xb7\xc2\xb7\xc2\xb7\xc2\xb7\xc2\xb7A\xc2\xb7\xc2\xb7\xc2\xb7\xc2\xb7" size="2" pos="46" show="\xc2\xb7\xc2\xb7\xc2\xb7\xc2\xb7\xc2\xb7\xc2\xb7\xc2\xb7A\xc2\xb7\xc2\xb7\xc2\xb7\xc2\xb7" value="8010"/>
    </field>
    <field name="tcp.window_size_value" showname="Window size value: 332" size="2" pos="48" show="332" value="014c"/>
    <field name="tcp.window_size" showname="Calculated window size: 332" size="2" pos="48" show="332" value="014c"/>
    <field name="tcp.window_size_scalefactor" showname="Window size scaling factor: -1 (unknown)" size="2" pos="48" show="-1" value="014c"/>
    <field name="tcp.checksum" showname="Checksum: 0x0dcd [unverified]" size="2" pos="50" show="0x00000dcd" value="0dcd"/>
    <field name="tcp.checksum.status" showname="Checksum Status: Unverified" size="0" pos="50" show="2"/>
    <field name="tcp.urgent_pointer" showname="Urgent pointer: 0" size="2" pos="52" show="0" value="0000"/>
    <field name="tcp.options" showname="Options: (12 bytes), No-Operation (NOP), No-Operation (NOP), Timestamps" size="12" pos="54" show="01:01:08:0a:26:06:73:1d:4e:0b:06:5a" value="0101080a2606731d4e0b065a">
      <field name="tcp.options.nop" showname="TCP Option - No-Operation (NOP)" size="1" pos="54" show="01" value="01">
        <field name="tcp.option_kind" showname="Kind: No-Operation (1)" size="1" pos="54" show="1" value="01"/>
      </field>
      <field name="tcp.options.nop" showname="TCP Option - No-Operation (NOP)" size="1" pos="55" show="01" value="01">
        <field name="tcp.option_kind" showname="Kind: No-Operation (1)" size="1" pos="55" show="1" value="01"/>
      </field>
      <field name="tcp.options.timestamp" showname="TCP Option - Timestamps: TSval 637956893, TSecr 1309345370" size="10" pos="56" show="08:0a:26:06:73:1d:4e:0b:06:5a" value="080a2606731d4e0b065a">
        <field name="tcp.option_kind" showname="Kind: Time Stamp Option (8)" size="1" pos="56" show="8" value="08"/>
        <field name="tcp.option_len" showname="Length: 10" size="1" pos="57" show="10" value="0a"/>
        <field name="tcp.options.timestamp.tsval" showname="Timestamp value: 637956893" size="4" pos="58" show="637956893" value="2606731d"/>
        <field name="tcp.options.timestamp.tsecr" showname="Timestamp echo reply: 1309345370" size="4" pos="62" show="1309345370" value="4e0b065a"/>
      </field>
    </field>
    <field name="tcp.analysis" showname="SEQ/ACK analysis" size="0" pos="34" show="" value="">
      <field name="tcp.analysis.flags" showname="TCP Analysis Flags" size="0" pos="34" show="" value="">
        <field name="_ws.expert" showname="Expert Info (Warning/Sequence): ACKed segment that wasn&#x27;t captured (common at capture start)" size="0" pos="34">
          <field name="tcp.analysis.ack_lost_segment" showname="ACKed segment that wasn&#x27;t captured (common at capture start)" size="0" pos="0" show="" value=""/>
          <field name="_ws.expert.message" showname="Message: ACKed segment that wasn&#x27;t captured (common at capture start)" hide="yes" size="0" pos="0" show="ACKed segment that wasn&#x27;t captured (common at capture start)"/>
          <field name="_ws.expert.severity" showname="Severity level: Warning" size="0" pos="0" show="6291456"/>
          <field name="_ws.expert.group" showname="Group: Sequence" size="0" pos="0" show="33554432"/>
        </field>
      </field>
    </field>
    <field name="" show="Timestamps" size="0" pos="34">
      <field name="tcp.time_relative" showname="Time since first frame in this TCP stream: 0.009266117 seconds" size="0" pos="34" show="0.009266117"/>
      <field name="tcp.time_delta" showname="Time since previous frame in this TCP stream: 0.009266117 seconds" size="0" pos="34" show="0.009266117"/>
    </field>
  </proto>
</packet>

<packet>
  <proto name="geninfo" pos="0" showname="General information" size="42">
    <field name="num" pos="0" show="7" showname="Number" value="7" size="42"/>
    <field name="len" pos="0" show="42" showname="Frame Length" value="2a" size="42"/>
    <field name="caplen" pos="0" show="42" showname="Captured Length" value="2a" size="42"/>
    <field name="timestamp" pos="0" show="Oct 16, 2020 12:33:30.071033671 EDT" showname="Captured Time" value="1602866010.071033671" size="42"/>
  </proto>
  <proto name="frame" showname="Frame 7: 42 bytes on wire (336 bits), 42 bytes captured (336 bits) on interface wlp2s0, id 0" size="42" pos="0">
    <field name="frame.interface_id" showname="Interface id: 0 (wlp2s0)" size="0" pos="0" show="0">
      <field name="frame.interface_name" showname="Interface name: wlp2s0" size="0" pos="0" show="wlp2s0"/>
    </field>
    <field name="frame.encap_type" showname="Encapsulation type: Ethernet (1)" size="0" pos="0" show="1"/>
    <field name="frame.time" showname="Arrival Time: Oct 16, 2020 12:33:30.071033671 EDT" size="0" pos="0" show="Oct 16, 2020 12:33:30.071033671 EDT"/>
    <field name="frame.offset_shift" showname="Time shift for this packet: 0.000000000 seconds" size="0" pos="0" show="0.000000000"/>
    <field name="frame.time_epoch" showname="Epoch Time: 1602866010.071033671 seconds" size="0" pos="0" show="1602866010.071033671"/>
    <field name="frame.time_delta" showname="Time delta from previous captured frame: 0.854815412 seconds" size="0" pos="0" show="0.854815412"/>
    <field name="frame.time_delta_displayed" showname="Time delta from previous displayed frame: 0.854815412 seconds" size="0" pos="0" show="0.854815412"/>
    <field name="frame.time_relative" showname="Time since reference or first frame: 2.912223260 seconds" size="0" pos="0" show="2.912223260"/>
    <field name="frame.number" showname="Frame Number: 7" size="0" pos="0" show="7"/>
    <field name="frame.len" showname="Frame Length: 42 bytes (336 bits)" size="0" pos="0" show="42"/>
    <field name="frame.cap_len" showname="Capture Length: 42 bytes (336 bits)" size="0" pos="0" show="42"/>
    <field name="frame.marked" showname="Frame is marked: False" size="0" pos="0" show="0"/>
    <field name="frame.ignored" showname="Frame is ignored: False" size="0" pos="0" show="0"/>
    <field name="frame.protocols" showname="Protocols in frame: eth:ethertype:arp" size="0" pos="0" show="eth:ethertype:arp"/>
    <field name="frame.coloring_rule.name" showname="Coloring Rule Name: ARP" size="0" pos="0" show="ARP"/>
    <field name="frame.coloring_rule.string" showname="Coloring Rule String: arp" size="0" pos="0" show="arp"/>
  </proto>
  <proto name="eth" showname="Ethernet II, Src: IntelCor_51:28:a4 (ac:2b:6e:51:28:a4), Dst: Broadcast (ff:ff:ff:ff:ff:ff)" size="14" pos="0">
    <field name="eth.dst" showname="Destination: Broadcast (ff:ff:ff:ff:ff:ff)" size="6" pos="0" show="ff:ff:ff:ff:ff:ff" value="ffffffffffff">
      <field name="eth.dst_resolved" showname="Destination (resolved): Broadcast" hide="yes" size="6" pos="0" show="Broadcast" value="ffffffffffff"/>
      <field name="eth.dst.oui" showname="Destination OUI: ff:ff:ff" hide="yes" size="3" pos="0" show="16777215" value="ffffff"/>
      <field name="eth.addr" showname="Address: Broadcast (ff:ff:ff:ff:ff:ff)" size="6" pos="0" show="ff:ff:ff:ff:ff:ff" value="ffffffffffff"/>
      <field name="eth.addr_resolved" showname="Address (resolved): Broadcast" hide="yes" size="6" pos="0" show="Broadcast" value="ffffffffffff"/>
      <field name="eth.addr.oui" showname="Address OUI: ff:ff:ff" hide="yes" size="3" pos="0" show="16777215" value="ffffff"/>
      <field name="eth.dst.lg" showname=".... ..1. .... .... .... .... = LG bit: Locally administered address (this is NOT the factory default)" size="3" pos="0" show="1" value="1" unmaskedvalue="ffffff"/>
      <field name="eth.lg" showname=".... ..1. .... .... .... .... = LG bit: Locally administered address (this is NOT the factory default)" hide="yes" size="3" pos="0" show="1" value="1" unmaskedvalue="ffffff"/>
      <field name="eth.dst.ig" showname=".... ...1 .... .... .... .... = IG bit: Group address (multicast/broadcast)" size="3" pos="0" show="1" value="1" unmaskedvalue="ffffff"/>
      <field name="eth.ig" showname=".... ...1 .... .... .... .... = IG bit: Group address (multicast/broadcast)" hide="yes" size="3" pos="0" show="1" value="1" unmaskedvalue="ffffff"/>
    </field>
    <field name="eth.src" showname="Source: IntelCor_51:28:a4 (ac:2b:6e:51:28:a4)" size="6" pos="6" show="ac:2b:6e:51:28:a4" value="ac2b6e5128a4">
      <field name="eth.src_resolved" showname="Source (resolved): IntelCor_51:28:a4" hide="yes" size="6" pos="6" show="IntelCor_51:28:a4" value="ac2b6e5128a4"/>
      <field name="eth.src.oui" showname="Source OUI: ac:2b:6e (Intel Corporate)" hide="yes" size="3" pos="6" show="11283310" value="ac2b6e"/>
      <field name="eth.src.oui_resolved" showname="Source OUI (resolved): Intel Corporate" hide="yes" size="6" pos="6" show="Intel Corporate" value="ac2b6e5128a4"/>
      <field name="eth.addr" showname="Address: IntelCor_51:28:a4 (ac:2b:6e:51:28:a4)" size="6" pos="6" show="ac:2b:6e:51:28:a4" value="ac2b6e5128a4"/>
      <field name="eth.addr_resolved" showname="Address (resolved): IntelCor_51:28:a4" hide="yes" size="6" pos="6" show="IntelCor_51:28:a4" value="ac2b6e5128a4"/>
      <field name="eth.addr.oui" showname="Address OUI: ac:2b:6e (Intel Corporate)" hide="yes" size="3" pos="6" show="11283310" value="ac2b6e"/>
      <field name="eth.addr.oui_resolved" showname="Address OUI (resolved): Intel Corporate" hide="yes" size="6" pos="6" show="Intel Corporate" value="ac2b6e5128a4"/>
      <field name="eth.src.lg" showname=".... ..0. .... .... .... .... = LG bit: Globally unique address (factory default)" size="3" pos="6" show="0" value="0" unmaskedvalue="ac2b6e"/>
      <field name="eth.lg" showname=".... ..0. .... .... .... .... = LG bit: Globally unique address (factory default)" hide="yes" size="3" pos="6" show="0" value="0" unmaskedvalue="ac2b6e"/>
      <field name="eth.src.ig" showname=".... ...0 .... .... .... .... = IG bit: Individual address (unicast)" size="3" pos="6" show="0" value="0" unmaskedvalue="ac2b6e"/>
      <field name="eth.ig" showname=".... ...0 .... .... .... .... = IG bit: Individual address (unicast)" hide="yes" size="3" pos="6" show="0" value="0" unmaskedvalue="ac2b6e"/>
    </field>
    <field name="eth.type" showname="Type: ARP (0x0806)" size="2" pos="12" show="0x00000806" value="0806"/>
  </proto>
  <proto name="arp" showname="Address Resolution Protocol (request)" size="28" pos="14">
    <field name="arp.hw.type" showname="Hardware type: Ethernet (1)" size="2" pos="14" show="1" value="0001"/>
    <field name="arp.proto.type" showname="Protocol type: IPv4 (0x0800)" size="2" pos="16" show="0x00000800" value="0800"/>
    <field name="arp.hw.size" showname="Hardware size: 6" size="1" pos="18" show="6" value="06"/>
    <field name="arp.proto.size" showname="Protocol size: 4" size="1" pos="19" show="4" value="04"/>
    <field name="arp.opcode" showname="Opcode: request (1)" size="2" pos="20" show="1" value="0001"/>
    <field name="arp.src.hw_mac" showname="Sender MAC address: IntelCor_51:28:a4 (ac:2b:6e:51:28:a4)" size="6" pos="22" show="ac:2b:6e:51:28:a4" value="ac2b6e5128a4"/>
    <field name="arp.src.proto_ipv4" showname="Sender IP address: 192.168.1.170" size="4" pos="28" show="192.168.1.170" value="c0a801aa"/>
    <field name="arp.dst.hw_mac" showname="Target MAC address: 00:00:00_00:00:00 (00:00:00:00:00:00)" size="6" pos="32" show="00:00:00:00:00:00" value="000000000000"/>
    <field name="arp.dst.proto_ipv4" showname="Target IP address: 192.168.1.1" size="4" pos="38" show="192.168.1.1" value="c0a80101"/>
  </proto>
</packet>

<packet>
  <proto name="geninfo" pos="0" showname="General information" size="100">
    <field name="num" pos="0" show="8" showname="Number" value="8" size="100"/>
    <field name="len" pos="0" show="100" showname="Frame Length" value="64" size="100"/>
    <field name="caplen" pos="0" show="100" showname="Captured Length" value="64" size="100"/>
    <field name="timestamp" pos="0" show="Oct 16, 2020 12:33:31.192771079 EDT" showname="Captured Time" value="1602866011.192771079" size="100"/>
  </proto>
  <proto name="frame" showname="Frame 8: 100 bytes on wire (800 bits), 100 bytes captured (800 bits) on interface wlp2s0, id 0" size="100" pos="0">
    <field name="frame.interface_id" showname="Interface id: 0 (wlp2s0)" size="0" pos="0" show="0">
      <field name="frame.interface_name" showname="Interface name: wlp2s0" size="0" pos="0" show="wlp2s0"/>
    </field>
    <field name="frame.encap_type" showname="Encapsulation type: Ethernet (1)" size="0" pos="0" show="1"/>
    <field name="frame.time" showname="Arrival Time: Oct 16, 2020 12:33:31.192771079 EDT" size="0" pos="0" show="Oct 16, 2020 12:33:31.192771079 EDT"/>
    <field name="frame.offset_shift" showname="Time shift for this packet: 0.000000000 seconds" size="0" pos="0" show="0.000000000"/>
    <field name="frame.time_epoch" showname="Epoch Time: 1602866011.192771079 seconds" size="0" pos="0" show="1602866011.192771079"/>
    <field name="frame.time_delta" showname="Time delta from previous captured frame: 1.121737408 seconds" size="0" pos="0" show="1.121737408"/>
    <field name="frame.time_delta_displayed" showname="Time delta from previous displayed frame: 1.121737408 seconds" size="0" pos="0" show="1.121737408"/>
    <field name="frame.time_relative" showname="Time since reference or first frame: 4.033960668 seconds" size="0" pos="0" show="4.033960668"/>
    <field name="frame.number" showname="Frame Number: 8" size="0" pos="0" show="8"/>
    <field name="frame.len" showname="Frame Length: 100 bytes (800 bits)" size="0" pos="0" show="100"/>
    <field name="frame.cap_len" showname="Capture Length: 100 bytes (800 bits)" size="0" pos="0" show="100"/>
    <field name="frame.marked" showname="Frame is marked: False" size="0" pos="0" show="0"/>
    <field name="frame.ignored" showname="Frame is ignored: False" size="0" pos="0" show="0"/>
    <field name="frame.protocols" showname="Protocols in frame: eth:ethertype:ip:udp:dns" size="0" pos="0" show="eth:ethertype:ip:udp:dns"/>
    <field name="frame.coloring_rule.name" showname="Coloring Rule Name: UDP" size="0" pos="0" show="UDP"/>
    <field name="frame.coloring_rule.string" showname="Coloring Rule String: udp" size="0" pos="0" show="udp"/>
  </proto>
  <proto name="eth" showname="Ethernet II, Src: IntelCor_65:ea:e6 (10:f0:05:65:ea:e6), Dst: Raspberr_3f:b2:f0 (b8:27:eb:3f:b2:f0)" size="14" pos="0">
    <field name="eth.dst" showname="Destination: Raspberr_3f:b2:f0 (b8:27:eb:3f:b2:f0)" size="6" pos="0" show="b8:27:eb:3f:b2:f0" value="b827eb3fb2f0">
      <field name="eth.dst_resolved" showname="Destination (resolved): Raspberr_3f:b2:f0" hide="yes" size="6" pos="0" show="Raspberr_3f:b2:f0" value="b827eb3fb2f0"/>
      <field name="eth.dst.oui" showname="Destination OUI: b8:27:eb (Raspberry Pi Foundati" hide="yes" size="3" pos="0" show="12068843" value="b827eb"/>
      <field name="eth.dst.oui_resolved" showname="Destination OUI (resolved): Raspberry Pi Foundation" hide="yes" size="6" pos="0" show="Raspberry Pi Foundation" value="b827eb3fb2f0"/>
      <field name="eth.addr" showname="Address: Raspberr_3f:b2:f0 (b8:27:eb:3f:b2:f0)" size="6" pos="0" show="b8:27:eb:3f:b2:f0" value="b827eb3fb2f0"/>
      <field name="eth.addr_resolved" showname="Address (resolved): Raspberr_3f:b2:f0" hide="yes" size="6" pos="0" show="Raspberr_3f:b2:f0" value="b827eb3fb2f0"/>
      <field name="eth.addr.oui" showname="Address OUI: b8:27:eb (Raspberry Pi Foundati" hide="yes" size="3" pos="0" show="12068843" value="b827eb"/>
      <field name="eth.addr.oui_resolved" showname="Address OUI (resolved): Raspberry Pi Foundation" hide="yes" size="6" pos="0" show="Raspberry Pi Foundation" value="b827eb3fb2f0"/>
      <field name="eth.dst.lg" showname=".... ..0. .... .... .... .... = LG bit: Globally unique address (factory default)" size="3" pos="0" show="0" value="0" unmaskedvalue="b827eb"/>
      <field name="eth.lg" showname=".... ..0. .... .... .... .... = LG bit: Globally unique address (factory default)" hide="yes" size="3" pos="0" show="0" value="0" unmaskedvalue="b827eb"/>
      <field name="eth.dst.ig" showname=".... ...0 .... .... .... .... = IG bit: Individual address (unicast)" size="3" pos="0" show="0" value="0" unmaskedvalue="b827eb"/>
      <field name="eth.ig" showname=".... ...0 .... .... .... .... = IG bit: Individual address (unicast)" hide="yes" size="3" pos="0" show="0" value="0" unmaskedvalue="b827eb"/>
    </field>
    <field name="eth.src" showname="Source: IntelCor_65:ea:e6 (10:f0:05:65:ea:e6)" size="6" pos="6" show="10:f0:05:65:ea:e6" value="10f00565eae6">
      <field name="eth.src_resolved" showname="Source (resolved): IntelCor_65:ea:e6" hide="yes" size="6" pos="6" show="IntelCor_65:ea:e6" value="10f00565eae6"/>
      <field name="eth.src.oui" showname="Source OUI: 10:f0:05 (Intel Corporate)" hide="yes" size="3" pos="6" show="1110021" value="10f005"/>
      <field name="eth.src.oui_resolved" showname="Source OUI (resolved): Intel Corporate" hide="yes" size="6" pos="6" show="Intel Corporate" value="10f00565eae6"/>
      <field name="eth.addr" showname="Address: IntelCor_65:ea:e6 (10:f0:05:65:ea:e6)" size="6" pos="6" show="10:f0:05:65:ea:e6" value="10f00565eae6"/>
      <field name="eth.addr_resolved" showname="Address (resolved): IntelCor_65:ea:e6" hide="yes" size="6" pos="6" show="IntelCor_65:ea:e6" value="10f00565eae6"/>
      <field name="eth.addr.oui" showname="Address OUI: 10:f0:05 (Intel Corporate)" hide="yes" size="3" pos="6" show="1110021" value="10f005"/>
      <field name="eth.addr.oui_resolved" showname="Address OUI (resolved): Intel Corporate" hide="yes" size="6" pos="6" show="Intel Corporate" value="10f00565eae6"/>
      <field name="eth.src.lg" showname=".... ..0. .... .... .... .... = LG bit: Globally unique address (factory default)" size="3" pos="6" show="0" value="0" unmaskedvalue="10f005"/>
      <field name="eth.lg" showname=".... ..0. .... .... .... .... = LG bit: Globally unique address (factory default)" hide="yes" size="3" pos="6" show="0" value="0" unmaskedvalue="10f005"/>
      <field name="eth.src.ig" showname=".... ...0 .... .... .... .... = IG bit: Individual address (unicast)" size="3" pos="6" show="0" value="0" unmaskedvalue="10f005"/>
      <field name="eth.ig" showname=".... ...0 .... .... .... .... = IG bit: Individual address (unicast)" hide="yes" size="3" pos="6" show="0" value="0" unmaskedvalue="10f005"/>
    </field>
    <field name="eth.type" showname="Type: IPv4 (0x0800)" size="2" pos="12" show="0x00000800" value="0800"/>
  </proto>
  <proto name="ip" showname="Internet Protocol Version 4, Src: 192.168.1.172, Dst: 192.168.1.233" size="20" pos="14">
    <field name="ip.version" showname="0100 .... = Version: 4" size="1" pos="14" show="4" value="4" unmaskedvalue="45"/>
    <field name="ip.hdr_len" showname=".... 0101 = Header Length: 20 bytes (5)" size="1" pos="14" show="20" value="45"/>
    <field name="ip.dsfield" showname="Differentiated Services Field: 0x00 (DSCP: CS0, ECN: Not-ECT)" size="1" pos="15" show="0x00000000" value="00">
      <field name="ip.dsfield.dscp" showname="0000 00.. = Differentiated Services Codepoint: Default (0)" size="1" pos="15" show="0" value="0" unmaskedvalue="00"/>
      <field name="ip.dsfield.ecn" showname=".... ..00 = Explicit Congestion Notification: Not ECN-Capable Transport (0)" size="1" pos="15" show="0" value="0" unmaskedvalue="00"/>
    </field>
    <field name="ip.len" showname="Total Length: 86" size="2" pos="16" show="86" value="0056"/>
    <field name="ip.id" showname="Identification: 0x2558 (9560)" size="2" pos="18" show="0x00002558" value="2558"/>
    <field name="ip.flags" showname="Flags: 0x4000, Don&#x27;t fragment" size="2" pos="20" show="0x00004000" value="4000">
      <field name="ip.flags.rb" showname="0... .... .... .... = Reserved bit: Not set" size="2" pos="20" show="0" value="0" unmaskedvalue="4000"/>
      <field name="ip.flags.df" showname=".1.. .... .... .... = Don&#x27;t fragment: Set" size="2" pos="20" show="1" value="1" unmaskedvalue="4000"/>
      <field name="ip.flags.mf" showname="..0. .... .... .... = More fragments: Not set" size="2" pos="20" show="0" value="0" unmaskedvalue="4000"/>
    </field>
    <field name="ip.frag_offset" showname="Fragment offset: 0" size="2" pos="20" show="0" value="4000"/>
    <field name="ip.ttl" showname="Time to live: 64" size="1" pos="22" show="64" value="40"/>
    <field name="ip.proto" showname="Protocol: UDP (17)" size="1" pos="23" show="17" value="11"/>
    <field name="ip.checksum" showname="Header checksum: 0x9059 [validation disabled]" size="2" pos="24" show="0x00009059" value="9059"/>
    <field name="ip.checksum.status" showname="Header checksum status: Unverified" size="0" pos="24" show="2"/>
    <field name="ip.src" showname="Source: 192.168.1.172" size="4" pos="26" show="192.168.1.172" value="c0a801ac"/>
    <field name="ip.addr" showname="Source or Destination Address: 192.168.1.172" hide="yes" size="4" pos="26" show="192.168.1.172" value="c0a801ac"/>
    <field name="ip.src_host" showname="Source Host: 192.168.1.172" hide="yes" size="4" pos="26" show="192.168.1.172" value="c0a801ac"/>
    <field name="ip.host" showname="Source or Destination Host: 192.168.1.172" hide="yes" size="4" pos="26" show="192.168.1.172" value="c0a801ac"/>
    <field name="ip.dst" showname="Destination: 192.168.1.233" size="4" pos="30" show="192.168.1.233" value="c0a801e9"/>
    <field name="ip.addr" showname="Source or Destination Address: 192.168.1.233" hide="yes" size="4" pos="30" show="192.168.1.233" value="c0a801e9"/>
    <field name="ip.dst_host" showname="Destination Host: 192.168.1.233" hide="yes" size="4" pos="30" show="192.168.1.233" value="c0a801e9"/>
    <field name="ip.host" showname="Source or Destination Host: 192.168.1.233" hide="yes" size="4" pos="30" show="192.168.1.233" value="c0a801e9"/>
  </proto>
  <proto name="udp" showname="User Datagram Protocol, Src Port: 34964, Dst Port: 53" size="8" pos="34">
    <field name="udp.srcport" showname="Source Port: 34964" size="2" pos="34" show="34964" value="8894"/>
    <field name="udp.dstport" showname="Destination Port: 53" size="2" pos="36" show="53" value="0035"/>
    <field name="udp.port" showname="Source or Destination Port: 34964" hide="yes" size="2" pos="34" show="34964" value="8894"/>
    <field name="udp.port" showname="Source or Destination Port: 53" hide="yes" size="2" pos="36" show="53" value="0035"/>
    <field name="udp.length" showname="Length: 66" size="2" pos="38" show="66" value="0042"/>
    <field name="udp.checksum" showname="Checksum: 0xc56f [unverified]" size="2" pos="40" show="0x0000c56f" value="c56f"/>
    <field name="udp.checksum.status" showname="Checksum Status: Unverified" size="0" pos="40" show="2"/>
    <field name="udp.stream" showname="Stream index: 0" size="0" pos="42" show="0"/>
    <field name="" show="Timestamps" size="0" pos="34">
      <field name="udp.time_relative" showname="Time since first frame: 0.000000000 seconds" size="0" pos="34" show="0.000000000"/>
      <field name="udp.time_delta" showname="Time since previous frame: 0.000000000 seconds" size="0" pos="34" show="0.000000000"/>
    </field>
  </proto>
  <proto name="dns" showname="Domain Name System (query)" size="58" pos="42">
    <field name="dns.id" showname="Transaction ID: 0x6673" size="2" pos="42" show="0x00006673" value="6673"/>
    <field name="dns.flags" showname="Flags: 0x0100 Standard query" size="2" pos="44" show="0x00000100" value="0100">
      <field name="dns.flags.response" showname="0... .... .... .... = Response: Message is a query" size="2" pos="44" show="0" value="0" unmaskedvalue="0100"/>
      <field name="dns.flags.opcode" showname=".000 0... .... .... = Opcode: Standard query (0)" size="2" pos="44" show="0" value="0" unmaskedvalue="0100"/>
      <field name="dns.flags.truncated" showname=".... ..0. .... .... = Truncated: Message is not truncated" size="2" pos="44" show="0" value="0" unmaskedvalue="0100"/>
      <field name="dns.flags.recdesired" showname=".... ...1 .... .... = Recursion desired: Do query recursively" size="2" pos="44" show="1" value="1" unmaskedvalue="0100"/>
      <field name="dns.flags.z" showname=".... .... .0.. .... = Z: reserved (0)" size="2" pos="44" show="0" value="0" unmaskedvalue="0100"/>
      <field name="dns.flags.checkdisable" showname=".... .... ...0 .... = Non-authenticated data: Unacceptable" size="2" pos="44" show="0" value="0" unmaskedvalue="0100"/>
    </field>
    <field name="dns.count.queries" showname="Questions: 1" size="2" pos="46" show="1" value="0001"/>
    <field name="dns.count.answers" showname="Answer RRs: 0" size="2" pos="48" show="0" value="0000"/>
    <field name="dns.count.auth_rr" showname="Authority RRs: 0" size="2" pos="50" show="0" value="0000"/>
    <field name="dns.count.add_rr" showname="Additional RRs: 1" size="2" pos="52" show="1" value="0001"/>
    <field name="" show="Queries" size="35" pos="54" value="12636f6e6e65637469766974792d636865636b067562756e747503636f6d00001c0001">
      <field name="" show="connectivity-check.ubuntu.com: type AAAA, class IN" size="35" pos="54" value="12636f6e6e65637469766974792d636865636b067562756e747503636f6d00001c0001">
        <field name="dns.qry.name" showname="Name: connectivity-check.ubuntu.com" size="31" pos="54" show="connectivity-check.ubuntu.com" value="12636f6e6e65637469766974792d636865636b067562756e747503636f6d00"/>
        <field name="dns.qry.name.len" showname="Name Length: 29" size="31" pos="54" show="29" value="12636f6e6e65637469766974792d636865636b067562756e747503636f6d00"/>
        <field name="dns.count.labels" showname="Label Count: 3" size="31" pos="54" show="3" value="12636f6e6e65637469766974792d636865636b067562756e747503636f6d00"/>
        <field name="dns.qry.type" showname="Type: AAAA (IPv6 Address) (28)" size="2" pos="85" show="28" value="001c"/>
        <field name="dns.qry.class" showname="Class: IN (0x0001)" size="2" pos="87" show="0x00000001" value="0001"/>
      </field>
    </field>
    <field name="" show="Additional records" size="11" pos="89" value="0000290200000000000000">
      <field name="" show="&lt;Root&gt;: type OPT" size="11" pos="89" value="0000290200000000000000">
        <field name="dns.resp.name" showname="Name: &lt;Root&gt;" size="1" pos="89" show="&lt;Root&gt;" value="00"/>
        <field name="dns.resp.type" showname="Type: OPT (41)" size="2" pos="90" show="41" value="0029"/>
        <field name="dns.rr.udp_payload_size" showname="UDP payload size: 512" size="2" pos="92" show="512" value="0200"/>
        <field name="dns.resp.ext_rcode" showname="Higher bits in extended RCODE: 0x00" size="1" pos="94" show="0x00000000" value="00"/>
        <field name="dns.resp.edns0_version" showname="EDNS0 version: 0" size="1" pos="95" show="0" value="00"/>
        <field name="dns.resp.z" showname="Z: 0x0000" size="2" pos="96" show="0x00000000" value="0000">
          <field name="dns.resp.z.do" showname="0... .... .... .... = DO bit: Cannot handle DNSSEC security RRs" size="2" pos="96" show="0" value="0" unmaskedvalue="0000"/>
          <field name="dns.resp.z.reserved" showname=".000 0000 0000 0000 = Reserved: 0x0000" size="2" pos="96" show="0x00000000" value="0" unmaskedvalue="0000"/>
        </field>
        <field name="dns.resp.len" showname="Data length: 0" size="2" pos="98" show="0" value="0000"/>
      </field>
    </field>
    <field name="dns.response_in" showname="Response In: 9" size="0" pos="42" show="9"/>
  </proto>
</packet>

<packet>
  <proto name="geninfo" pos="0" showname="General information" size="100">
    <field name="num" pos="0" show="9" showname="Number" value="9" size="100"/>
    <field name="len" pos="0" show="100" showname="Frame Length" value="64" size="100"/>
    <field name="caplen" pos="0" show="100" showname="Captured Length" value="64" size="100"/>
    <field name="timestamp" pos="0" show="Oct 16, 2020 12:33:31.198137153 EDT" showname="Captured Time" value="1602866011.198137153" size="100"/>
  </proto>
  <proto name="frame" showname="Frame 9: 100 bytes on wire (800 bits), 100 bytes captured (800 bits) on interface wlp2s0, id 0" size="100" pos="0">
    <field name="frame.interface_id" showname="Interface id: 0 (wlp2s0)" size="0" pos="0" show="0">
      <field name="frame.interface_name" showname="Interface name: wlp2s0" size="0" pos="0" show="wlp2s0"/>
    </field>
    <field name="frame.encap_type" showname="Encapsulation type: Ethernet (1)" size="0" pos="0" show="1"/>
    <field name="frame.time" showname="Arrival Time: Oct 16, 2020 12:33:31.198137153 EDT" size="0" pos="0" show="Oct 16, 2020 12:33:31.198137153 EDT"/>
    <field name="frame.offset_shift" showname="Time shift for this packet: 0.000000000 seconds" size="0" pos="0" show="0.000000000"/>
    <field name="frame.time_epoch" showname="Epoch Time: 1602866011.198137153 seconds" size="0" pos="0" show="1602866011.198137153"/>
    <field name="frame.time_delta" showname="Time delta from previous captured frame: 0.005366074 seconds" size="0" pos="0" show="0.005366074"/>
    <field name="frame.time_delta_displayed" showname="Time delta from previous displayed frame: 0.005366074 seconds" size="0" pos="0" show="0.005366074"/>
    <field name="frame.time_relative" showname="Time since reference or first frame: 4.039326742 seconds" size="0" pos="0" show="4.039326742"/>
    <field name="frame.number" showname="Frame Number: 9" size="0" pos="0" show="9"/>
    <field name="frame.len" showname="Frame Length: 100 bytes (800 bits)" size="0" pos="0" show="100"/>
    <field name="frame.cap_len" showname="Capture Length: 100 bytes (800 bits)" size="0" pos="0" show="100"/>
    <field name="frame.marked" showname="Frame is marked: False" size="0" pos="0" show="0"/>
    <field name="frame.ignored" showname="Frame is ignored: False" size="0" pos="0" show="0"/>
    <field name="frame.protocols" showname="Protocols in frame: eth:ethertype:ip:udp:dns" size="0" pos="0" show="eth:ethertype:ip:udp:dns"/>
    <field name="frame.coloring_rule.name" showname="Coloring Rule Name: UDP" size="0" pos="0" show="UDP"/>
    <field name="frame.coloring_rule.string" showname="Coloring Rule String: udp" size="0" pos="0" show="udp"/>
  </proto>
  <proto name="eth" showname="Ethernet II, Src: Raspberr_3f:b2:f0 (b8:27:eb:3f:b2:f0), Dst: IntelCor_65:ea:e6 (10:f0:05:65:ea:e6)" size="14" pos="0">
    <field name="eth.dst" showname="Destination: IntelCor_65:ea:e6 (10:f0:05:65:ea:e6)" size="6" pos="0" show="10:f0:05:65:ea:e6" value="10f00565eae6">
      <field name="eth.dst_resolved" showname="Destination (resolved): IntelCor_65:ea:e6" hide="yes" size="6" pos="0" show="IntelCor_65:ea:e6" value="10f00565eae6"/>
      <field name="eth.dst.oui" showname="Destination OUI: 10:f0:05 (Intel Corporate)" hide="yes" size="3" pos="0" show="1110021" value="10f005"/>
      <field name="eth.dst.oui_resolved" showname="Destination OUI (resolved): Intel Corporate" hide="yes" size="6" pos="0" show="Intel Corporate" value="10f00565eae6"/>
      <field name="eth.addr" showname="Address: IntelCor_65:ea:e6 (10:f0:05:65:ea:e6)" size="6" pos="0" show="10:f0:05:65:ea:e6" value="10f00565eae6"/>
      <field name="eth.addr_resolved" showname="Address (resolved): IntelCor_65:ea:e6" hide="yes" size="6" pos="0" show="IntelCor_65:ea:e6" value="10f00565eae6"/>
      <field name="eth.addr.oui" showname="Address OUI: 10:f0:05 (Intel Corporate)" hide="yes" size="3" pos="0" show="1110021" value="10f005"/>
      <field name="eth.addr.oui_resolved" showname="Address OUI (resolved): Intel Corporate" hide="yes" size="6" pos="0" show="Intel Corporate" value="10f00565eae6"/>
      <field name="eth.dst.lg" showname=".... ..0. .... .... .... .... = LG bit: Globally unique address (factory default)" size="3" pos="0" show="0" value="0" unmaskedvalue="10f005"/>
      <field name="eth.lg" showname=".... ..0. .... .... .... .... = LG bit: Globally unique address (factory default)" hide="yes" size="3" pos="0" show="0" value="0" unmaskedvalue="10f005"/>
      <field name="eth.dst.ig" showname=".... ...0 .... .... .... .... = IG bit: Individual address (unicast)" size="3" pos="0" show="0" value="0" unmaskedvalue="10f005"/>
      <field name="eth.ig" showname=".... ...0 .... .... .... .... = IG bit: Individual address (unicast)" hide="yes" size="3" pos="0" show="0" value="0" unmaskedvalue="10f005"/>
    </field>
    <field name="eth.src" showname="Source: Raspberr_3f:b2:f0 (b8:27:eb:3f:b2:f0)" size="6" pos="6" show="b8:27:eb:3f:b2:f0" value="b827eb3fb2f0">
      <field name="eth.src_resolved" showname="Source (resolved): Raspberr_3f:b2:f0" hide="yes" size="6" pos="6" show="Raspberr_3f:b2:f0" value="b827eb3fb2f0"/>
      <field name="eth.src.oui" showname="Source OUI: b8:27:eb (Raspberry Pi Foundati" hide="yes" size="3" pos="6" show="12068843" value="b827eb"/>
      <field name="eth.src.oui_resolved" showname="Source OUI (resolved): Raspberry Pi Foundation" hide="yes" size="6" pos="6" show="Raspberry Pi Foundation" value="b827eb3fb2f0"/>
      <field name="eth.addr" showname="Address: Raspberr_3f:b2:f0 (b8:27:eb:3f:b2:f0)" size="6" pos="6" show="b8:27:eb:3f:b2:f0" value="b827eb3fb2f0"/>
      <field name="eth.addr_resolved" showname="Address (resolved): Raspberr_3f:b2:f0" hide="yes" size="6" pos="6" show="Raspberr_3f:b2:f0" value="b827eb3fb2f0"/>
      <field name="eth.addr.oui" showname="Address OUI: b8:27:eb (Raspberry Pi Foundati" hide="yes" size="3" pos="6" show="12068843" value="b827eb"/>
      <field name="eth.addr.oui_resolved" showname="Address OUI (resolved): Raspberry Pi Foundation" hide="yes" size="6" pos="6" show="Raspberry Pi Foundation" value="b827eb3fb2f0"/>
      <field name="eth.src.lg" showname=".... ..0. .... .... .... .... = LG bit: Globally unique address (factory default)" size="3" pos="6" show="0" value="0" unmaskedvalue="b827eb"/>
      <field name="eth.lg" showname=".... ..0. .... .... .... .... = LG bit: Globally unique address (factory default)" hide="yes" size="3" pos="6" show="0" value="0" unmaskedvalue="b827eb"/>
      <field name="eth.src.ig" showname=".... ...0 .... .... .... .... = IG bit: Individual address (unicast)" size="3" pos="6" show="0" value="0" unmaskedvalue="b827eb"/>
      <field name="eth.ig" showname=".... ...0 .... .... .... .... = IG bit: Individual address (unicast)" hide="yes" size="3" pos="6" show="0" value="0" unmaskedvalue="b827eb"/>
    </field>
    <field name="eth.type" showname="Type: IPv4 (0x0800)" size="2" pos="12" show="0x00000800" value="0800"/>
  </proto>
  <proto name="ip" showname="Internet Protocol Version 4, Src: 192.168.1.233, Dst: 192.168.1.172" size="20" pos="14">
    <field name="ip.version" showname="0100 .... = Version: 4" size="1" pos="14" show="4" value="4" unmaskedvalue="45"/>
    <field name="ip.hdr_len" showname=".... 0101 = Header Length: 20 bytes (5)" size="1" pos="14" show="20" value="45"/>
    <field name="ip.dsfield" showname="Differentiated Services Field: 0x00 (DSCP: CS0, ECN: Not-ECT)" size="1" pos="15" show="0x00000000" value="00">
      <field name="ip.dsfield.dscp" showname="0000 00.. = Differentiated Services Codepoint: Default (0)" size="1" pos="15" show="0" value="0" unmaskedvalue="00"/>
      <field name="ip.dsfield.ecn" showname=".... ..00 = Explicit Congestion Notification: Not ECN-Capable Transport (0)" size="1" pos="15" show="0" value="0" unmaskedvalue="00"/>
    </field>
    <field name="ip.len" showname="Total Length: 86" size="2" pos="16" show="86" value="0056"/>
    <field name="ip.id" showname="Identification: 0xd54a (54602)" size="2" pos="18" show="0x0000d54a" value="d54a"/>
    <field name="ip.flags" showname="Flags: 0x4000, Don&#x27;t fragment" size="2" pos="20" show="0x00004000" value="4000">
      <field name="ip.flags.rb" showname="0... .... .... .... = Reserved bit: Not set" size="2" pos="20" show="0" value="0" unmaskedvalue="4000"/>
      <field name="ip.flags.df" showname=".1.. .... .... .... = Don&#x27;t fragment: Set" size="2" pos="20" show="1" value="1" unmaskedvalue="4000"/>
      <field name="ip.flags.mf" showname="..0. .... .... .... = More fragments: Not set" size="2" pos="20" show="0" value="0" unmaskedvalue="4000"/>
    </field>
    <field name="ip.frag_offset" showname="Fragment offset: 0" size="2" pos="20" show="0" value="4000"/>
    <field name="ip.ttl" showname="Time to live: 64" size="1" pos="22" show="64" value="40"/>
    <field name="ip.proto" showname="Protocol: UDP (17)" size="1" pos="23" show="17" value="11"/>
    <field name="ip.checksum" showname="Header checksum: 0xe066 [validation disabled]" size="2" pos="24" show="0x0000e066" value="e066"/>
    <field name="ip.checksum.status" showname="Header checksum status: Unverified" size="0" pos="24" show="2"/>
    <field name="ip.src" showname="Source: 192.168.1.233" size="4" pos="26" show="192.168.1.233" value="c0a801e9"/>
    <field name="ip.addr" showname="Source or Destination Address: 192.168.1.233" hide="yes" size="4" pos="26" show="192.168.1.233" value="c0a801e9"/>
    <field name="ip.src_host" showname="Source Host: 192.168.1.233" hide="yes" size="4" pos="26" show="192.168.1.233" value="c0a801e9"/>
    <field name="ip.host" showname="Source or Destination Host: 192.168.1.233" hide="yes" size="4" pos="26" show="192.168.1.233" value="c0a801e9"/>
    <field name="ip.dst" showname="Destination: 192.168.1.172" size="4" pos="30" show="192.168.1.172" value="c0a801ac"/>
    <field name="ip.addr" showname="Source or Destination Address: 192.168.1.172" hide="yes" size="4" pos="30" show="192.168.1.172" value="c0a801ac"/>
    <field name="ip.dst_host" showname="Destination Host: 192.168.1.172" hide="yes" size="4" pos="30" show="192.168.1.172" value="c0a801ac"/>
    <field name="ip.host" showname="Source or Destination Host: 192.168.1.172" hide="yes" size="4" pos="30" show="192.168.1.172" value="c0a801ac"/>
  </proto>
  <proto name="udp" showname="User Datagram Protocol, Src Port: 53, Dst Port: 34964" size="8" pos="34">
    <field name="udp.srcport" showname="Source Port: 53" size="2" pos="34" show="53" value="0035"/>
    <field name="udp.dstport" showname="Destination Port: 34964" size="2" pos="36" show="34964" value="8894"/>
    <field name="udp.port" showname="Source or Destination Port: 53" hide="yes" size="2" pos="34" show="53" value="0035"/>
    <field name="udp.port" showname="Source or Destination Port: 34964" hide="yes" size="2" pos="36" show="34964" value="8894"/>
    <field name="udp.length" showname="Length: 66" size="2" pos="38" show="66" value="0042"/>
    <field name="udp.checksum" showname="Checksum: 0x36ef [unverified]" size="2" pos="40" show="0x000036ef" value="36ef"/>
    <field name="udp.checksum.status" showname="Checksum Status: Unverified" size="0" pos="40" show="2"/>
    <field name="udp.stream" showname="Stream index: 0" size="0" pos="42" show="0"/>
    <field name="" show="Timestamps" size="0" pos="34">
      <field name="udp.time_relative" showname="Time since first frame: 0.005366074 seconds" size="0" pos="34" show="0.005366074"/>
      <field name="udp.time_delta" showname="Time since previous frame: 0.005366074 seconds" size="0" pos="34" show="0.005366074"/>
    </field>
  </proto>
  <proto name="dns" showname="Domain Name System (response)" size="58" pos="42">
    <field name="dns.id" showname="Transaction ID: 0x6673" size="2" pos="42" show="0x00006673" value="6673"/>
    <field name="dns.flags" showname="Flags: 0x8180 Standard query response, No error" size="2" pos="44" show="0x00008180" value="8180">
      <field name="dns.flags.response" showname="1... .... .... .... = Response: Message is a response" size="2" pos="44" show="1" value="1" unmaskedvalue="8180"/>
      <field name="dns.flags.opcode" showname=".000 0... .... .... = Opcode: Standard query (0)" size="2" pos="44" show="0" value="0" unmaskedvalue="8180"/>
      <field name="dns.flags.authoritative" showname=".... .0.. .... .... = Authoritative: Server is not an authority for domain" size="2" pos="44" show="0" value="0" unmaskedvalue="8180"/>
      <field name="dns.flags.truncated" showname=".... ..0. .... .... = Truncated: Message is not truncated" size="2" pos="44" show="0" value="0" unmaskedvalue="8180"/>
      <field name="dns.flags.recdesired" showname=".... ...1 .... .... = Recursion desired: Do query recursively" size="2" pos="44" show="1" value="1" unmaskedvalue="8180"/>
      <field name="dns.flags.recavail" showname=".... .... 1... .... = Recursion available: Server can do recursive queries" size="2" pos="44" show="1" value="1" unmaskedvalue="8180"/>
      <field name="dns.flags.z" showname=".... .... .0.. .... = Z: reserved (0)" size="2" pos="44" show="0" value="0" unmaskedvalue="8180"/>
      <field name="dns.flags.authenticated" showname=".... .... ..0. .... = Answer authenticated: Answer/authority portion was not authenticated by the server" size="2" pos="44" show="0" value="0" unmaskedvalue="8180"/>
      <field name="dns.flags.checkdisable" showname=".... .... ...0 .... = Non-authenticated data: Unacceptable" size="2" pos="44" show="0" value="0" unmaskedvalue="8180"/>
      <field name="dns.flags.rcode" showname=".... .... .... 0000 = Reply code: No error (0)" size="2" pos="44" show="0" value="0" unmaskedvalue="8180"/>
    </field>
    <field name="dns.count.queries" showname="Questions: 1" size="2" pos="46" show="1" value="0001"/>
    <field name="dns.count.answers" showname="Answer RRs: 0" size="2" pos="48" show="0" value="0000"/>
    <field name="dns.count.auth_rr" showname="Authority RRs: 0" size="2" pos="50" show="0" value="0000"/>
    <field name="dns.count.add_rr" showname="Additional RRs: 1" size="2" pos="52" show="1" value="0001"/>
    <field name="" show="Queries" size="35" pos="54" value="12636f6e6e65637469766974792d636865636b067562756e747503636f6d00001c0001">
      <field name="" show="connectivity-check.ubuntu.com: type AAAA, class IN" size="35" pos="54" value="12636f6e6e65637469766974792d636865636b067562756e747503636f6d00001c0001">
        <field name="dns.qry.name" showname="Name: connectivity-check.ubuntu.com" size="31" pos="54" show="connectivity-check.ubuntu.com" value="12636f6e6e65637469766974792d636865636b067562756e747503636f6d00"/>
        <field name="dns.qry.name.len" showname="Name Length: 29" size="31" pos="54" show="29" value="12636f6e6e65637469766974792d636865636b067562756e747503636f6d00"/>
        <field name="dns.count.labels" showname="Label Count: 3" size="31" pos="54" show="3" value="12636f6e6e65637469766974792d636865636b067562756e747503636f6d00"/>
        <field name="dns.qry.type" showname="Type: AAAA (IPv6 Address) (28)" size="2" pos="85" show="28" value="001c"/>
        <field name="dns.qry.class" showname="Class: IN (0x0001)" size="2" pos="87" show="0x00000001" value="0001"/>
      </field>
    </field>
    <field name="" show="Additional records" size="11" pos="89" value="0000291000000000000000">
      <field name="" show="&lt;Root&gt;: type OPT" size="11" pos="89" value="0000291000000000000000">
        <field name="dns.resp.name" showname="Name: &lt;Root&gt;" size="1" pos="89" show="&lt;Root&gt;" value="00"/>
        <field name="dns.resp.type" showname="Type: OPT (41)" size="2" pos="90" show="41" value="0029"/>
        <field name="dns.rr.udp_payload_size" showname="UDP payload size: 4096" size="2" pos="92" show="4096" value="1000"/>
        <field name="dns.resp.ext_rcode" showname="Higher bits in extended RCODE: 0x00" size="1" pos="94" show="0x00000000" value="00"/>
        <field name="dns.resp.edns0_version" showname="EDNS0 version: 0" size="1" pos="95" show="0" value="00"/>
        <field name="dns.resp.z" showname="Z: 0x0000" size="2" pos="96" show="0x00000000" value="0000">
          <field name="dns.resp.z.do" showname="0... .... .... .... = DO bit: Cannot handle DNSSEC security RRs" size="2" pos="96" show="0" value="0" unmaskedvalue="0000"/>
          <field name="dns.resp.z.reserved" showname=".000 0000 0000 0000 = Reserved: 0x0000" size="2" pos="96" show="0x00000000" value="0" unmaskedvalue="0000"/>
        </field>
        <field name="dns.resp.len" showname="Data length: 0" size="2" pos="98" show="0" value="0000"/>
      </field>
    </field>
    <field name="dns.response_to" showname="Request In: 8" size="0" pos="42" show="8"/>
    <field name="dns.time" showname="Time: 0.005366074 seconds" size="0" pos="42" show="0.005366074"/>
  </proto>
</packet>

<packet>
  <proto name="geninfo" pos="0" showname="General information" size="100">
    <field name="num" pos="0" show="10" showname="Number" value="a" size="100"/>
    <field name="len" pos="0" show="100" showname="Frame Length" value="64" size="100"/>
    <field name="caplen" pos="0" show="100" showname="Captured Length" value="64" size="100"/>
    <field name="timestamp" pos="0" show="Oct 16, 2020 12:33:31.200714642 EDT" showname="Captured Time" value="1602866011.200714642" size="100"/>
  </proto>
  <proto name="frame" showname="Frame 10: 100 bytes on wire (800 bits), 100 bytes captured (800 bits) on interface wlp2s0, id 0" size="100" pos="0">
    <field name="frame.interface_id" showname="Interface id: 0 (wlp2s0)" size="0" pos="0" show="0">
      <field name="frame.interface_name" showname="Interface name: wlp2s0" size="0" pos="0" show="wlp2s0"/>
    </field>
    <field name="frame.encap_type" showname="Encapsulation type: Ethernet (1)" size="0" pos="0" show="1"/>
    <field name="frame.time" showname="Arrival Time: Oct 16, 2020 12:33:31.200714642 EDT" size="0" pos="0" show="Oct 16, 2020 12:33:31.200714642 EDT"/>
    <field name="frame.offset_shift" showname="Time shift for this packet: 0.000000000 seconds" size="0" pos="0" show="0.000000000"/>
    <field name="frame.time_epoch" showname="Epoch Time: 1602866011.200714642 seconds" size="0" pos="0" show="1602866011.200714642"/>
    <field name="frame.time_delta" showname="Time delta from previous captured frame: 0.002577489 seconds" size="0" pos="0" show="0.002577489"/>
    <field name="frame.time_delta_displayed" showname="Time delta from previous displayed frame: 0.002577489 seconds" size="0" pos="0" show="0.002577489"/>
    <field name="frame.time_relative" showname="Time since reference or first frame: 4.041904231 seconds" size="0" pos="0" show="4.041904231"/>
    <field name="frame.number" showname="Frame Number: 10" size="0" pos="0" show="10"/>
    <field name="frame.len" showname="Frame Length: 100 bytes (800 bits)" size="0" pos="0" show="100"/>
    <field name="frame.cap_len" showname="Capture Length: 100 bytes (800 bits)" size="0" pos="0" show="100"/>
    <field name="frame.marked" showname="Frame is marked: False" size="0" pos="0" show="0"/>
    <field name="frame.ignored" showname="Frame is ignored: False" size="0" pos="0" show="0"/>
    <field name="frame.protocols" showname="Protocols in frame: eth:ethertype:ip:udp:dns" size="0" pos="0" show="eth:ethertype:ip:udp:dns"/>
    <field name="frame.coloring_rule.name" showname="Coloring Rule Name: UDP" size="0" pos="0" show="UDP"/>
    <field name="frame.coloring_rule.string" showname="Coloring Rule String: udp" size="0" pos="0" show="udp"/>
  </proto>
  <proto name="eth" showname="Ethernet II, Src: IntelCor_65:ea:e6 (10:f0:05:65:ea:e6), Dst: Raspberr_3f:b2:f0 (b8:27:eb:3f:b2:f0)" size="14" pos="0">
    <field name="eth.dst" showname="Destination: Raspberr_3f:b2:f0 (b8:27:eb:3f:b2:f0)" size="6" pos="0" show="b8:27:eb:3f:b2:f0" value="b827eb3fb2f0">
      <field name="eth.dst_resolved" showname="Destination (resolved): Raspberr_3f:b2:f0" hide="yes" size="6" pos="0" show="Raspberr_3f:b2:f0" value="b827eb3fb2f0"/>
      <field name="eth.dst.oui" showname="Destination OUI: b8:27:eb (Raspberry Pi Foundati" hide="yes" size="3" pos="0" show="12068843" value="b827eb"/>
      <field name="eth.dst.oui_resolved" showname="Destination OUI (resolved): Raspberry Pi Foundation" hide="yes" size="6" pos="0" show="Raspberry Pi Foundation" value="b827eb3fb2f0"/>
      <field name="eth.addr" showname="Address: Raspberr_3f:b2:f0 (b8:27:eb:3f:b2:f0)" size="6" pos="0" show="b8:27:eb:3f:b2:f0" value="b827eb3fb2f0"/>
      <field name="eth.addr_resolved" showname="Address (resolved): Raspberr_3f:b2:f0" hide="yes" size="6" pos="0" show="Raspberr_3f:b2:f0" value="b827eb3fb2f0"/>
      <field name="eth.addr.oui" showname="Address OUI: b8:27:eb (Raspberry Pi Foundati" hide="yes" size="3" pos="0" show="12068843" value="b827eb"/>
      <field name="eth.addr.oui_resolved" showname="Address OUI (resolved): Raspberry Pi Foundation" hide="yes" size="6" pos="0" show="Raspberry Pi Foundation" value="b827eb3fb2f0"/>
      <field name="eth.dst.lg" showname=".... ..0. .... .... .... .... = LG bit: Globally unique address (factory default)" size="3" pos="0" show="0" value="0" unmaskedvalue="b827eb"/>
      <field name="eth.lg" showname=".... ..0. .... .... .... .... = LG bit: Globally unique address (factory default)" hide="yes" size="3" pos="0" show="0" value="0" unmaskedvalue="b827eb"/>
      <field name="eth.dst.ig" showname=".... ...0 .... .... .... .... = IG bit: Individual address (unicast)" size="3" pos="0" show="0" value="0" unmaskedvalue="b827eb"/>
      <field name="eth.ig" showname=".... ...0 .... .... .... .... = IG bit: Individual address (unicast)" hide="yes" size="3" pos="0" show="0" value="0" unmaskedvalue="b827eb"/>
    </field>
    <field name="eth.src" showname="Source: IntelCor_65:ea:e6 (10:f0:05:65:ea:e6)" size="6" pos="6" show="10:f0:05:65:ea:e6" value="10f00565eae6">
      <field name="eth.src_resolved" showname="Source (resolved): IntelCor_65:ea:e6" hide="yes" size="6" pos="6" show="IntelCor_65:ea:e6" value="10f00565eae6"/>
      <field name="eth.src.oui" showname="Source OUI: 10:f0:05 (Intel Corporate)" hide="yes" size="3" pos="6" show="1110021" value="10f005"/>
      <field name="eth.src.oui_resolved" showname="Source OUI (resolved): Intel Corporate" hide="yes" size="6" pos="6" show="Intel Corporate" value="10f00565eae6"/>
      <field name="eth.addr" showname="Address: IntelCor_65:ea:e6 (10:f0:05:65:ea:e6)" size="6" pos="6" show="10:f0:05:65:ea:e6" value="10f00565eae6"/>
      <field name="eth.addr_resolved" showname="Address (resolved): IntelCor_65:ea:e6" hide="yes" size="6" pos="6" show="IntelCor_65:ea:e6" value="10f00565eae6"/>
      <field name="eth.addr.oui" showname="Address OUI: 10:f0:05 (Intel Corporate)" hide="yes" size="3" pos="6" show="1110021" value="10f005"/>
      <field name="eth.addr.oui_resolved" showname="Address OUI (resolved): Intel Corporate" hide="yes" size="6" pos="6" show="Intel Corporate" value="10f00565eae6"/>
      <field name="eth.src.lg" showname=".... ..0. .... .... .... .... = LG bit: Globally unique address (factory default)" size="3" pos="6" show="0" value="0" unmaskedvalue="10f005"/>
      <field name="eth.lg" showname=".... ..0. .... .... .... .... = LG bit: Globally unique address (factory default)" hide="yes" size="3" pos="6" show="0" value="0" unmaskedvalue="10f005"/>
      <field name="eth.src.ig" showname=".... ...0 .... .... .... .... = IG bit: Individual address (unicast)" size="3" pos="6" show="0" value="0" unmaskedvalue="10f005"/>
      <field name="eth.ig" showname=".... ...0 .... .... .... .... = IG bit: Individual address (unicast)" hide="yes" size="3" pos="6" show="0" value="0" unmaskedvalue="10f005"/>
    </field>
    <field name="eth.type" showname="Type: IPv4 (0x0800)" size="2" pos="12" show="0x00000800" value="0800"/>
  </proto>
  <proto name="ip" showname="Internet Protocol Version 4, Src: 192.168.1.172, Dst: 192.168.1.233" size="20" pos="14">
    <field name="ip.version" showname="0100 .... = Version: 4" size="1" pos="14" show="4" value="4" unmaskedvalue="45"/>
    <field name="ip.hdr_len" showname=".... 0101 = Header Length: 20 bytes (5)" size="1" pos="14" show="20" value="45"/>
    <field name="ip.dsfield" showname="Differentiated Services Field: 0x00 (DSCP: CS0, ECN: Not-ECT)" size="1" pos="15" show="0x00000000" value="00">
      <field name="ip.dsfield.dscp" showname="0000 00.. = Differentiated Services Codepoint: Default (0)" size="1" pos="15" show="0" value="0" unmaskedvalue="00"/>
      <field name="ip.dsfield.ecn" showname=".... ..00 = Explicit Congestion Notification: Not ECN-Capable Transport (0)" size="1" pos="15" show="0" value="0" unmaskedvalue="00"/>
    </field>
    <field name="ip.len" showname="Total Length: 86" size="2" pos="16" show="86" value="0056"/>
    <field name="ip.id" showname="Identification: 0x2559 (9561)" size="2" pos="18" show="0x00002559" value="2559"/>
    <field name="ip.flags" showname="Flags: 0x4000, Don&#x27;t fragment" size="2" pos="20" show="0x00004000" value="4000">
      <field name="ip.flags.rb" showname="0... .... .... .... = Reserved bit: Not set" size="2" pos="20" show="0" value="0" unmaskedvalue="4000"/>
      <field name="ip.flags.df" showname=".1.. .... .... .... = Don&#x27;t fragment: Set" size="2" pos="20" show="1" value="1" unmaskedvalue="4000"/>
      <field name="ip.flags.mf" showname="..0. .... .... .... = More fragments: Not set" size="2" pos="20" show="0" value="0" unmaskedvalue="4000"/>
    </field>
    <field name="ip.frag_offset" showname="Fragment offset: 0" size="2" pos="20" show="0" value="4000"/>
    <field name="ip.ttl" showname="Time to live: 64" size="1" pos="22" show="64" value="40"/>
    <field name="ip.proto" showname="Protocol: UDP (17)" size="1" pos="23" show="17" value="11"/>
    <field name="ip.checksum" showname="Header checksum: 0x9058 [validation disabled]" size="2" pos="24" show="0x00009058" value="9058"/>
    <field name="ip.checksum.status" showname="Header checksum status: Unverified" size="0" pos="24" show="2"/>
    <field name="ip.src" showname="Source: 192.168.1.172" size="4" pos="26" show="192.168.1.172" value="c0a801ac"/>
    <field name="ip.addr" showname="Source or Destination Address: 192.168.1.172" hide="yes" size="4" pos="26" show="192.168.1.172" value="c0a801ac"/>
    <field name="ip.src_host" showname="Source Host: 192.168.1.172" hide="yes" size="4" pos="26" show="192.168.1.172" value="c0a801ac"/>
    <field name="ip.host" showname="Source or Destination Host: 192.168.1.172" hide="yes" size="4" pos="26" show="192.168.1.172" value="c0a801ac"/>
    <field name="ip.dst" showname="Destination: 192.168.1.233" size="4" pos="30" show="192.168.1.233" value="c0a801e9"/>
    <field name="ip.addr" showname="Source or Destination Address: 192.168.1.233" hide="yes" size="4" pos="30" show="192.168.1.233" value="c0a801e9"/>
    <field name="ip.dst_host" showname="Destination Host: 192.168.1.233" hide="yes" size="4" pos="30" show="192.168.1.233" value="c0a801e9"/>
    <field name="ip.host" showname="Source or Destination Host: 192.168.1.233" hide="yes" size="4" pos="30" show="192.168.1.233" value="c0a801e9"/>
  </proto>
  <proto name="udp" showname="User Datagram Protocol, Src Port: 58652, Dst Port: 53" size="8" pos="34">
    <field name="udp.srcport" showname="Source Port: 58652" size="2" pos="34" show="58652" value="e51c"/>
    <field name="udp.dstport" showname="Destination Port: 53" size="2" pos="36" show="53" value="0035"/>
    <field name="udp.port" showname="Source or Destination Port: 58652" hide="yes" size="2" pos="34" show="58652" value="e51c"/>
    <field name="udp.port" showname="Source or Destination Port: 53" hide="yes" size="2" pos="36" show="53" value="0035"/>
    <field name="udp.length" showname="Length: 66" size="2" pos="38" show="66" value="0042"/>
    <field name="udp.checksum" showname="Checksum: 0x35d2 [unverified]" size="2" pos="40" show="0x000035d2" value="35d2"/>
    <field name="udp.checksum.status" showname="Checksum Status: Unverified" size="0" pos="40" show="2"/>
    <field name="udp.stream" showname="Stream index: 1" size="0" pos="42" show="1"/>
    <field name="" show="Timestamps" size="0" pos="34">
      <field name="udp.time_relative" showname="Time since first frame: 0.000000000 seconds" size="0" pos="34" show="0.000000000"/>
      <field name="udp.time_delta" showname="Time since previous frame: 0.000000000 seconds" size="0" pos="34" show="0.000000000"/>
    </field>
  </proto>
  <proto name="dns" showname="Domain Name System (query)" size="58" pos="42">
    <field name="dns.id" showname="Transaction ID: 0x9988" size="2" pos="42" show="0x00009988" value="9988"/>
    <field name="dns.flags" showname="Flags: 0x0100 Standard query" size="2" pos="44" show="0x00000100" value="0100">
      <field name="dns.flags.response" showname="0... .... .... .... = Response: Message is a query" size="2" pos="44" show="0" value="0" unmaskedvalue="0100"/>
      <field name="dns.flags.opcode" showname=".000 0... .... .... = Opcode: Standard query (0)" size="2" pos="44" show="0" value="0" unmaskedvalue="0100"/>
      <field name="dns.flags.truncated" showname=".... ..0. .... .... = Truncated: Message is not truncated" size="2" pos="44" show="0" value="0" unmaskedvalue="0100"/>
      <field name="dns.flags.recdesired" showname=".... ...1 .... .... = Recursion desired: Do query recursively" size="2" pos="44" show="1" value="1" unmaskedvalue="0100"/>
      <field name="dns.flags.z" showname=".... .... .0.. .... = Z: reserved (0)" size="2" pos="44" show="0" value="0" unmaskedvalue="0100"/>
      <field name="dns.flags.checkdisable" showname=".... .... ...0 .... = Non-authenticated data: Unacceptable" size="2" pos="44" show="0" value="0" unmaskedvalue="0100"/>
    </field>
    <field name="dns.count.queries" showname="Questions: 1" size="2" pos="46" show="1" value="0001"/>
    <field name="dns.count.answers" showname="Answer RRs: 0" size="2" pos="48" show="0" value="0000"/>
    <field name="dns.count.auth_rr" showname="Authority RRs: 0" size="2" pos="50" show="0" value="0000"/>
    <field name="dns.count.add_rr" showname="Additional RRs: 1" size="2" pos="52" show="1" value="0001"/>
    <field name="" show="Queries" size="35" pos="54" value="12636f6e6e65637469766974792d636865636b067562756e747503636f6d00001c0001">
      <field name="" show="connectivity-check.ubuntu.com: type AAAA, class IN" size="35" pos="54" value="12636f6e6e65637469766974792d636865636b067562756e747503636f6d00001c0001">
        <field name="dns.qry.name" showname="Name: connectivity-check.ubuntu.com" size="31" pos="54" show="connectivity-check.ubuntu.com" value="12636f6e6e65637469766974792d636865636b067562756e747503636f6d00"/>
        <field name="dns.qry.name.len" showname="Name Length: 29" size="31" pos="54" show="29" value="12636f6e6e65637469766974792d636865636b067562756e747503636f6d00"/>
        <field name="dns.count.labels" showname="Label Count: 3" size="31" pos="54" show="3" value="12636f6e6e65637469766974792d636865636b067562756e747503636f6d00"/>
        <field name="dns.qry.type" showname="Type: AAAA (IPv6 Address) (28)" size="2" pos="85" show="28" value="001c"/>
        <field name="dns.qry.class" showname="Class: IN (0x0001)" size="2" pos="87" show="0x00000001" value="0001"/>
      </field>
    </field>
    <field name="" show="Additional records" size="11" pos="89" value="0000290200000000000000">
      <field name="" show="&lt;Root&gt;: type OPT" size="11" pos="89" value="0000290200000000000000">
        <field name="dns.resp.name" showname="Name: &lt;Root&gt;" size="1" pos="89" show="&lt;Root&gt;" value="00"/>
        <field name="dns.resp.type" showname="Type: OPT (41)" size="2" pos="90" show="41" value="0029"/>
        <field name="dns.rr.udp_payload_size" showname="UDP payload size: 512" size="2" pos="92" show="512" value="0200"/>
        <field name="dns.resp.ext_rcode" showname="Higher bits in extended RCODE: 0x00" size="1" pos="94" show="0x00000000" value="00"/>
        <field name="dns.resp.edns0_version" showname="EDNS0 version: 0" size="1" pos="95" show="0" value="00"/>
        <field name="dns.resp.z" showname="Z: 0x0000" size="2" pos="96" show="0x00000000" value="0000">
          <field name="dns.resp.z.do" showname="0... .... .... .... = DO bit: Cannot handle DNSSEC security RRs" size="2" pos="96" show="0" value="0" unmaskedvalue="0000"/>
          <field name="dns.resp.z.reserved" showname=".000 0000 0000 0000 = Reserved: 0x0000" size="2" pos="96" show="0x00000000" value="0" unmaskedvalue="0000"/>
        </field>
        <field name="dns.resp.len" showname="Data length: 0" size="2" pos="98" show="0" value="0000"/>
      </field>
    </field>
    <field name="dns.response_in" showname="Response In: 11" size="0" pos="42" show="11"/>
  </proto>
</packet>

<packet>
  <proto name="geninfo" pos="0" showname="General information" size="100">
    <field name="num" pos="0" show="11" showname="Number" value="b" size="100"/>
    <field name="len" pos="0" show="100" showname="Frame Length" value="64" size="100"/>
    <field name="caplen" pos="0" show="100" showname="Captured Length" value="64" size="100"/>
    <field name="timestamp" pos="0" show="Oct 16, 2020 12:33:31.203391876 EDT" showname="Captured Time" value="1602866011.203391876" size="100"/>
  </proto>
  <proto name="frame" showname="Frame 11: 100 bytes on wire (800 bits), 100 bytes captured (800 bits) on interface wlp2s0, id 0" size="100" pos="0">
    <field name="frame.interface_id" showname="Interface id: 0 (wlp2s0)" size="0" pos="0" show="0">
      <field name="frame.interface_name" showname="Interface name: wlp2s0" size="0" pos="0" show="wlp2s0"/>
    </field>
    <field name="frame.encap_type" showname="Encapsulation type: Ethernet (1)" size="0" pos="0" show="1"/>
    <field name="frame.time" showname="Arrival Time: Oct 16, 2020 12:33:31.203391876 EDT" size="0" pos="0" show="Oct 16, 2020 12:33:31.203391876 EDT"/>
    <field name="frame.offset_shift" showname="Time shift for this packet: 0.000000000 seconds" size="0" pos="0" show="0.000000000"/>
    <field name="frame.time_epoch" showname="Epoch Time: 1602866011.203391876 seconds" size="0" pos="0" show="1602866011.203391876"/>
    <field name="frame.time_delta" showname="Time delta from previous captured frame: 0.002677234 seconds" size="0" pos="0" show="0.002677234"/>
    <field name="frame.time_delta_displayed" showname="Time delta from previous displayed frame: 0.002677234 seconds" size="0" pos="0" show="0.002677234"/>
    <field name="frame.time_relative" showname="Time since reference or first frame: 4.044581465 seconds" size="0" pos="0" show="4.044581465"/>
    <field name="frame.number" showname="Frame Number: 11" size="0" pos="0" show="11"/>
    <field name="frame.len" showname="Frame Length: 100 bytes (800 bits)" size="0" pos="0" show="100"/>
    <field name="frame.cap_len" showname="Capture Length: 100 bytes (800 bits)" size="0" pos="0" show="100"/>
    <field name="frame.marked" showname="Frame is marked: False" size="0" pos="0" show="0"/>
    <field name="frame.ignored" showname="Frame is ignored: False" size="0" pos="0" show="0"/>
    <field name="frame.protocols" showname="Protocols in frame: eth:ethertype:ip:udp:dns" size="0" pos="0" show="eth:ethertype:ip:udp:dns"/>
    <field name="frame.coloring_rule.name" showname="Coloring Rule Name: UDP" size="0" pos="0" show="UDP"/>
    <field name="frame.coloring_rule.string" showname="Coloring Rule String: udp" size="0" pos="0" show="udp"/>
  </proto>
  <proto name="eth" showname="Ethernet II, Src: Raspberr_3f:b2:f0 (b8:27:eb:3f:b2:f0), Dst: IntelCor_65:ea:e6 (10:f0:05:65:ea:e6)" size="14" pos="0">
    <field name="eth.dst" showname="Destination: IntelCor_65:ea:e6 (10:f0:05:65:ea:e6)" size="6" pos="0" show="10:f0:05:65:ea:e6" value="10f00565eae6">
      <field name="eth.dst_resolved" showname="Destination (resolved): IntelCor_65:ea:e6" hide="yes" size="6" pos="0" show="IntelCor_65:ea:e6" value="10f00565eae6"/>
      <field name="eth.dst.oui" showname="Destination OUI: 10:f0:05 (Intel Corporate)" hide="yes" size="3" pos="0" show="1110021" value="10f005"/>
      <field name="eth.dst.oui_resolved" showname="Destination OUI (resolved): Intel Corporate" hide="yes" size="6" pos="0" show="Intel Corporate" value="10f00565eae6"/>
      <field name="eth.addr" showname="Address: IntelCor_65:ea:e6 (10:f0:05:65:ea:e6)" size="6" pos="0" show="10:f0:05:65:ea:e6" value="10f00565eae6"/>
      <field name="eth.addr_resolved" showname="Address (resolved): IntelCor_65:ea:e6" hide="yes" size="6" pos="0" show="IntelCor_65:ea:e6" value="10f00565eae6"/>
      <field name="eth.addr.oui" showname="Address OUI: 10:f0:05 (Intel Corporate)" hide="yes" size="3" pos="0" show="1110021" value="10f005"/>
      <field name="eth.addr.oui_resolved" showname="Address OUI (resolved): Intel Corporate" hide="yes" size="6" pos="0" show="Intel Corporate" value="10f00565eae6"/>
      <field name="eth.dst.lg" showname=".... ..0. .... .... .... .... = LG bit: Globally unique address (factory default)" size="3" pos="0" show="0" value="0" unmaskedvalue="10f005"/>
      <field name="eth.lg" showname=".... ..0. .... .... .... .... = LG bit: Globally unique address (factory default)" hide="yes" size="3" pos="0" show="0" value="0" unmaskedvalue="10f005"/>
      <field name="eth.dst.ig" showname=".... ...0 .... .... .... .... = IG bit: Individual address (unicast)" size="3" pos="0" show="0" value="0" unmaskedvalue="10f005"/>
      <field name="eth.ig" showname=".... ...0 .... .... .... .... = IG bit: Individual address (unicast)" hide="yes" size="3" pos="0" show="0" value="0" unmaskedvalue="10f005"/>
    </field>
    <field name="eth.src" showname="Source: Raspberr_3f:b2:f0 (b8:27:eb:3f:b2:f0)" size="6" pos="6" show="b8:27:eb:3f:b2:f0" value="b827eb3fb2f0">
      <field name="eth.src_resolved" showname="Source (resolved): Raspberr_3f:b2:f0" hide="yes" size="6" pos="6" show="Raspberr_3f:b2:f0" value="b827eb3fb2f0"/>
      <field name="eth.src.oui" showname="Source OUI: b8:27:eb (Raspberry Pi Foundati" hide="yes" size="3" pos="6" show="12068843" value="b827eb"/>
      <field name="eth.src.oui_resolved" showname="Source OUI (resolved): Raspberry Pi Foundation" hide="yes" size="6" pos="6" show="Raspberry Pi Foundation" value="b827eb3fb2f0"/>
      <field name="eth.addr" showname="Address: Raspberr_3f:b2:f0 (b8:27:eb:3f:b2:f0)" size="6" pos="6" show="b8:27:eb:3f:b2:f0" value="b827eb3fb2f0"/>
      <field name="eth.addr_resolved" showname="Address (resolved): Raspberr_3f:b2:f0" hide="yes" size="6" pos="6" show="Raspberr_3f:b2:f0" value="b827eb3fb2f0"/>
      <field name="eth.addr.oui" showname="Address OUI: b8:27:eb (Raspberry Pi Foundati" hide="yes" size="3" pos="6" show="12068843" value="b827eb"/>
      <field name="eth.addr.oui_resolved" showname="Address OUI (resolved): Raspberry Pi Foundation" hide="yes" size="6" pos="6" show="Raspberry Pi Foundation" value="b827eb3fb2f0"/>
      <field name="eth.src.lg" showname=".... ..0. .... .... .... .... = LG bit: Globally unique address (factory default)" size="3" pos="6" show="0" value="0" unmaskedvalue="b827eb"/>
      <field name="eth.lg" showname=".... ..0. .... .... .... .... = LG bit: Globally unique address (factory default)" hide="yes" size="3" pos="6" show="0" value="0" unmaskedvalue="b827eb"/>
      <field name="eth.src.ig" showname=".... ...0 .... .... .... .... = IG bit: Individual address (unicast)" size="3" pos="6" show="0" value="0" unmaskedvalue="b827eb"/>
      <field name="eth.ig" showname=".... ...0 .... .... .... .... = IG bit: Individual address (unicast)" hide="yes" size="3" pos="6" show="0" value="0" unmaskedvalue="b827eb"/>
    </field>
    <field name="eth.type" showname="Type: IPv4 (0x0800)" size="2" pos="12" show="0x00000800" value="0800"/>
  </proto>
  <proto name="ip" showname="Internet Protocol Version 4, Src: 192.168.1.233, Dst: 192.168.1.172" size="20" pos="14">
    <field name="ip.version" showname="0100 .... = Version: 4" size="1" pos="14" show="4" value="4" unmaskedvalue="45"/>
    <field name="ip.hdr_len" showname=".... 0101 = Header Length: 20 bytes (5)" size="1" pos="14" show="20" value="45"/>
    <field name="ip.dsfield" showname="Differentiated Services Field: 0x00 (DSCP: CS0, ECN: Not-ECT)" size="1" pos="15" show="0x00000000" value="00">
      <field name="ip.dsfield.dscp" showname="0000 00.. = Differentiated Services Codepoint: Default (0)" size="1" pos="15" show="0" value="0" unmaskedvalue="00"/>
      <field name="ip.dsfield.ecn" showname=".... ..00 = Explicit Congestion Notification: Not ECN-Capable Transport (0)" size="1" pos="15" show="0" value="0" unmaskedvalue="00"/>
    </field>
    <field name="ip.len" showname="Total Length: 86" size="2" pos="16" show="86" value="0056"/>
    <field name="ip.id" showname="Identification: 0xd54b (54603)" size="2" pos="18" show="0x0000d54b" value="d54b"/>
    <field name="ip.flags" showname="Flags: 0x4000, Don&#x27;t fragment" size="2" pos="20" show="0x00004000" value="4000">
      <field name="ip.flags.rb" showname="0... .... .... .... = Reserved bit: Not set" size="2" pos="20" show="0" value="0" unmaskedvalue="4000"/>
      <field name="ip.flags.df" showname=".1.. .... .... .... = Don&#x27;t fragment: Set" size="2" pos="20" show="1" value="1" unmaskedvalue="4000"/>
      <field name="ip.flags.mf" showname="..0. .... .... .... = More fragments: Not set" size="2" pos="20" show="0" value="0" unmaskedvalue="4000"/>
    </field>
    <field name="ip.frag_offset" showname="Fragment offset: 0" size="2" pos="20" show="0" value="4000"/>
    <field name="ip.ttl" showname="Time to live: 64" size="1" pos="22" show="64" value="40"/>
    <field name="ip.proto" showname="Protocol: UDP (17)" size="1" pos="23" show="17" value="11"/>
    <field name="ip.checksum" showname="Header checksum: 0xe065 [validation disabled]" size="2" pos="24" show="0x0000e065" value="e065"/>
    <field name="ip.checksum.status" showname="Header checksum status: Unverified" size="0" pos="24" show="2"/>
    <field name="ip.src" showname="Source: 192.168.1.233" size="4" pos="26" show="192.168.1.233" value="c0a801e9"/>
    <field name="ip.addr" showname="Source or Destination Address: 192.168.1.233" hide="yes" size="4" pos="26" show="192.168.1.233" value="c0a801e9"/>
    <field name="ip.src_host" showname="Source Host: 192.168.1.233" hide="yes" size="4" pos="26" show="192.168.1.233" value="c0a801e9"/>
    <field name="ip.host" showname="Source or Destination Host: 192.168.1.233" hide="yes" size="4" pos="26" show="192.168.1.233" value="c0a801e9"/>
    <field name="ip.dst" showname="Destination: 192.168.1.172" size="4" pos="30" show="192.168.1.172" value="c0a801ac"/>
    <field name="ip.addr" showname="Source or Destination Address: 192.168.1.172" hide="yes" size="4" pos="30" show="192.168.1.172" value="c0a801ac"/>
    <field name="ip.dst_host" showname="Destination Host: 192.168.1.172" hide="yes" size="4" pos="30" show="192.168.1.172" value="c0a801ac"/>
    <field name="ip.host" showname="Source or Destination Host: 192.168.1.172" hide="yes" size="4" pos="30" show="192.168.1.172" value="c0a801ac"/>
  </proto>
  <proto name="udp" showname="User Datagram Protocol, Src Port: 53, Dst Port: 58652" size="8" pos="34">
    <field name="udp.srcport" showname="Source Port: 53" size="2" pos="34" show="53" value="0035"/>
    <field name="udp.dstport" showname="Destination Port: 58652" size="2" pos="36" show="58652" value="e51c"/>
    <field name="udp.port" showname="Source or Destination Port: 53" hide="yes" size="2" pos="34" show="53" value="0035"/>
    <field name="udp.port" showname="Source or Destination Port: 58652" hide="yes" size="2" pos="36" show="58652" value="e51c"/>
    <field name="udp.length" showname="Length: 66" size="2" pos="38" show="66" value="0042"/>
    <field name="udp.checksum" showname="Checksum: 0xa751 [unverified]" size="2" pos="40" show="0x0000a751" value="a751"/>
    <field name="udp.checksum.status" showname="Checksum Status: Unverified" size="0" pos="40" show="2"/>
    <field name="udp.stream" showname="Stream index: 1" size="0" pos="42" show="1"/>
    <field name="" show="Timestamps" size="0" pos="34">
      <field name="udp.time_relative" showname="Time since first frame: 0.002677234 seconds" size="0" pos="34" show="0.002677234"/>
      <field name="udp.time_delta" showname="Time since previous frame: 0.002677234 seconds" size="0" pos="34" show="0.002677234"/>
    </field>
  </proto>
  <proto name="dns" showname="Domain Name System (response)" size="58" pos="42">
    <field name="dns.id" showname="Transaction ID: 0x9988" size="2" pos="42" show="0x00009988" value="9988"/>
    <field name="dns.flags" showname="Flags: 0x8180 Standard query response, No error" size="2" pos="44" show="0x00008180" value="8180">
      <field name="dns.flags.response" showname="1... .... .... .... = Response: Message is a response" size="2" pos="44" show="1" value="1" unmaskedvalue="8180"/>
      <field name="dns.flags.opcode" showname=".000 0... .... .... = Opcode: Standard query (0)" size="2" pos="44" show="0" value="0" unmaskedvalue="8180"/>
      <field name="dns.flags.authoritative" showname=".... .0.. .... .... = Authoritative: Server is not an authority for domain" size="2" pos="44" show="0" value="0" unmaskedvalue="8180"/>
      <field name="dns.flags.truncated" showname=".... ..0. .... .... = Truncated: Message is not truncated" size="2" pos="44" show="0" value="0" unmaskedvalue="8180"/>
      <field name="dns.flags.recdesired" showname=".... ...1 .... .... = Recursion desired: Do query recursively" size="2" pos="44" show="1" value="1" unmaskedvalue="8180"/>
      <field name="dns.flags.recavail" showname=".... .... 1... .... = Recursion available: Server can do recursive queries" size="2" pos="44" show="1" value="1" unmaskedvalue="8180"/>
      <field name="dns.flags.z" showname=".... .... .0.. .... = Z: reserved (0)" size="2" pos="44" show="0" value="0" unmaskedvalue="8180"/>
      <field name="dns.flags.authenticated" showname=".... .... ..0. .... = Answer authenticated: Answer/authority portion was not authenticated by the server" size="2" pos="44" show="0" value="0" unmaskedvalue="8180"/>
      <field name="dns.flags.checkdisable" showname=".... .... ...0 .... = Non-authenticated data: Unacceptable" size="2" pos="44" show="0" value="0" unmaskedvalue="8180"/>
      <field name="dns.flags.rcode" showname=".... .... .... 0000 = Reply code: No error (0)" size="2" pos="44" show="0" value="0" unmaskedvalue="8180"/>
    </field>
    <field name="dns.count.queries" showname="Questions: 1" size="2" pos="46" show="1" value="0001"/>
    <field name="dns.count.answers" showname="Answer RRs: 0" size="2" pos="48" show="0" value="0000"/>
    <field name="dns.count.auth_rr" showname="Authority RRs: 0" size="2" pos="50" show="0" value="0000"/>
    <field name="dns.count.add_rr" showname="Additional RRs: 1" size="2" pos="52" show="1" value="0001"/>
    <field name="" show="Queries" size="35" pos="54" value="12636f6e6e65637469766974792d636865636b067562756e747503636f6d00001c0001">
      <field name="" show="connectivity-check.ubuntu.com: type AAAA, class IN" size="35" pos="54" value="12636f6e6e65637469766974792d636865636b067562756e747503636f6d00001c0001">
        <field name="dns.qry.name" showname="Name: connectivity-check.ubuntu.com" size="31" pos="54" show="connectivity-check.ubuntu.com" value="12636f6e6e65637469766974792d636865636b067562756e747503636f6d00"/>
        <field name="dns.qry.name.len" showname="Name Length: 29" size="31" pos="54" show="29" value="12636f6e6e65637469766974792d636865636b067562756e747503636f6d00"/>
        <field name="dns.count.labels" showname="Label Count: 3" size="31" pos="54" show="3" value="12636f6e6e65637469766974792d636865636b067562756e747503636f6d00"/>
        <field name="dns.qry.type" showname="Type: AAAA (IPv6 Address) (28)" size="2" pos="85" show="28" value="001c"/>
        <field name="dns.qry.class" showname="Class: IN (0x0001)" size="2" pos="87" show="0x00000001" value="0001"/>
      </field>
    </field>
    <field name="" show="Additional records" size="11" pos="89" value="0000291000000000000000">
      <field name="" show="&lt;Root&gt;: type OPT" size="11" pos="89" value="0000291000000000000000">
        <field name="dns.resp.name" showname="Name: &lt;Root&gt;" size="1" pos="89" show="&lt;Root&gt;" value="00"/>
        <field name="dns.resp.type" showname="Type: OPT (41)" size="2" pos="90" show="41" value="0029"/>
        <field name="dns.rr.udp_payload_size" showname="UDP payload size: 4096" size="2" pos="92" show="4096" value="1000"/>
        <field name="dns.resp.ext_rcode" showname="Higher bits in extended RCODE: 0x00" size="1" pos="94" show="0x00000000" value="00"/>
        <field name="dns.resp.edns0_version" showname="EDNS0 version: 0" size="1" pos="95" show="0" value="00"/>
        <field name="dns.resp.z" showname="Z: 0x0000" size="2" pos="96" show="0x00000000" value="0000">
          <field name="dns.resp.z.do" showname="0... .... .... .... = DO bit: Cannot handle DNSSEC security RRs" size="2" pos="96" show="0" value="0" unmaskedvalue="0000"/>
          <field name="dns.resp.z.reserved" showname=".000 0000 0000 0000 = Reserved: 0x0000" size="2" pos="96" show="0x00000000" value="0" unmaskedvalue="0000"/>
        </field>
        <field name="dns.resp.len" showname="Data length: 0" size="2" pos="98" show="0" value="0000"/>
      </field>
    </field>
    <field name="dns.response_to" showname="Request In: 10" size="0" pos="42" show="10"/>
    <field name="dns.time" showname="Time: 0.002677234 seconds" size="0" pos="42" show="0.002677234"/>
  </proto>
</packet>

<packet>
  <proto name="geninfo" pos="0" showname="General information" size="66">
    <field name="num" pos="0" show="12" showname="Number" value="c" size="66"/>
    <field name="len" pos="0" show="66" showname="Frame Length" value="42" size="66"/>
    <field name="caplen" pos="0" show="66" showname="Captured Length" value="42" size="66"/>
    <field name="timestamp" pos="0" show="Oct 16, 2020 12:33:31.254876872 EDT" showname="Captured Time" value="1602866011.254876872" size="66"/>
  </proto>
  <proto name="frame" showname="Frame 12: 66 bytes on wire (528 bits), 66 bytes captured (528 bits) on interface wlp2s0, id 0" size="66" pos="0">
    <field name="frame.interface_id" showname="Interface id: 0 (wlp2s0)" size="0" pos="0" show="0">
      <field name="frame.interface_name" showname="Interface name: wlp2s0" size="0" pos="0" show="wlp2s0"/>
    </field>
    <field name="frame.encap_type" showname="Encapsulation type: Ethernet (1)" size="0" pos="0" show="1"/>
    <field name="frame.time" showname="Arrival Time: Oct 16, 2020 12:33:31.254876872 EDT" size="0" pos="0" show="Oct 16, 2020 12:33:31.254876872 EDT"/>
    <field name="frame.offset_shift" showname="Time shift for this packet: 0.000000000 seconds" size="0" pos="0" show="0.000000000"/>
    <field name="frame.time_epoch" showname="Epoch Time: 1602866011.254876872 seconds" size="0" pos="0" show="1602866011.254876872"/>
    <field name="frame.time_delta" showname="Time delta from previous captured frame: 0.051484996 seconds" size="0" pos="0" show="0.051484996"/>
    <field name="frame.time_delta_displayed" showname="Time delta from previous displayed frame: 0.051484996 seconds" size="0" pos="0" show="0.051484996"/>
    <field name="frame.time_relative" showname="Time since reference or first frame: 4.096066461 seconds" size="0" pos="0" show="4.096066461"/>
    <field name="frame.number" showname="Frame Number: 12" size="0" pos="0" show="12"/>
    <field name="frame.len" showname="Frame Length: 66 bytes (528 bits)" size="0" pos="0" show="66"/>
    <field name="frame.cap_len" showname="Capture Length: 66 bytes (528 bits)" size="0" pos="0" show="66"/>
    <field name="frame.marked" showname="Frame is marked: False" size="0" pos="0" show="0"/>
    <field name="frame.ignored" showname="Frame is ignored: False" size="0" pos="0" show="0"/>
    <field name="frame.protocols" showname="Protocols in frame: eth:ethertype:ip:tcp" size="0" pos="0" show="eth:ethertype:ip:tcp"/>
    <field name="frame.coloring_rule.name" showname="Coloring Rule Name: TCP" size="0" pos="0" show="TCP"/>
    <field name="frame.coloring_rule.string" showname="Coloring Rule String: tcp" size="0" pos="0" show="tcp"/>
  </proto>
  <proto name="eth" showname="Ethernet II, Src: IntelCor_65:ea:e6 (10:f0:05:65:ea:e6), Dst: Verizon_05:1f:27 (48:5d:36:05:1f:27)" size="14" pos="0">
    <field name="eth.dst" showname="Destination: Verizon_05:1f:27 (48:5d:36:05:1f:27)" size="6" pos="0" show="48:5d:36:05:1f:27" value="485d36051f27">
      <field name="eth.dst_resolved" showname="Destination (resolved): Verizon_05:1f:27" hide="yes" size="6" pos="0" show="Verizon_05:1f:27" value="485d36051f27"/>
      <field name="eth.dst.oui" showname="Destination OUI: 48:5d:36 (Verizon)" hide="yes" size="3" pos="0" show="4742454" value="485d36"/>
      <field name="eth.dst.oui_resolved" showname="Destination OUI (resolved): Verizon" hide="yes" size="6" pos="0" show="Verizon" value="485d36051f27"/>
      <field name="eth.addr" showname="Address: Verizon_05:1f:27 (48:5d:36:05:1f:27)" size="6" pos="0" show="48:5d:36:05:1f:27" value="485d36051f27"/>
      <field name="eth.addr_resolved" showname="Address (resolved): Verizon_05:1f:27" hide="yes" size="6" pos="0" show="Verizon_05:1f:27" value="485d36051f27"/>
      <field name="eth.addr.oui" showname="Address OUI: 48:5d:36 (Verizon)" hide="yes" size="3" pos="0" show="4742454" value="485d36"/>
      <field name="eth.addr.oui_resolved" showname="Address OUI (resolved): Verizon" hide="yes" size="6" pos="0" show="Verizon" value="485d36051f27"/>
      <field name="eth.dst.lg" showname=".... ..0. .... .... .... .... = LG bit: Globally unique address (factory default)" size="3" pos="0" show="0" value="0" unmaskedvalue="485d36"/>
      <field name="eth.lg" showname=".... ..0. .... .... .... .... = LG bit: Globally unique address (factory default)" hide="yes" size="3" pos="0" show="0" value="0" unmaskedvalue="485d36"/>
      <field name="eth.dst.ig" showname=".... ...0 .... .... .... .... = IG bit: Individual address (unicast)" size="3" pos="0" show="0" value="0" unmaskedvalue="485d36"/>
      <field name="eth.ig" showname=".... ...0 .... .... .... .... = IG bit: Individual address (unicast)" hide="yes" size="3" pos="0" show="0" value="0" unmaskedvalue="485d36"/>
    </field>
    <field name="eth.src" showname="Source: IntelCor_65:ea:e6 (10:f0:05:65:ea:e6)" size="6" pos="6" show="10:f0:05:65:ea:e6" value="10f00565eae6">
      <field name="eth.src_resolved" showname="Source (resolved): IntelCor_65:ea:e6" hide="yes" size="6" pos="6" show="IntelCor_65:ea:e6" value="10f00565eae6"/>
      <field name="eth.src.oui" showname="Source OUI: 10:f0:05 (Intel Corporate)" hide="yes" size="3" pos="6" show="1110021" value="10f005"/>
      <field name="eth.src.oui_resolved" showname="Source OUI (resolved): Intel Corporate" hide="yes" size="6" pos="6" show="Intel Corporate" value="10f00565eae6"/>
      <field name="eth.addr" showname="Address: IntelCor_65:ea:e6 (10:f0:05:65:ea:e6)" size="6" pos="6" show="10:f0:05:65:ea:e6" value="10f00565eae6"/>
      <field name="eth.addr_resolved" showname="Address (resolved): IntelCor_65:ea:e6" hide="yes" size="6" pos="6" show="IntelCor_65:ea:e6" value="10f00565eae6"/>
      <field name="eth.addr.oui" showname="Address OUI: 10:f0:05 (Intel Corporate)" hide="yes" size="3" pos="6" show="1110021" value="10f005"/>
      <field name="eth.addr.oui_resolved" showname="Address OUI (resolved): Intel Corporate" hide="yes" size="6" pos="6" show="Intel Corporate" value="10f00565eae6"/>
      <field name="eth.src.lg" showname=".... ..0. .... .... .... .... = LG bit: Globally unique address (factory default)" size="3" pos="6" show="0" value="0" unmaskedvalue="10f005"/>
      <field name="eth.lg" showname=".... ..0. .... .... .... .... = LG bit: Globally unique address (factory default)" hide="yes" size="3" pos="6" show="0" value="0" unmaskedvalue="10f005"/>
      <field name="eth.src.ig" showname=".... ...0 .... .... .... .... = IG bit: Individual address (unicast)" size="3" pos="6" show="0" value="0" unmaskedvalue="10f005"/>
      <field name="eth.ig" showname=".... ...0 .... .... .... .... = IG bit: Individual address (unicast)" hide="yes" size="3" pos="6" show="0" value="0" unmaskedvalue="10f005"/>
    </field>
    <field name="eth.type" showname="Type: IPv4 (0x0800)" size="2" pos="12" show="0x00000800" value="0800"/>
  </proto>
  <proto name="ip" showname="Internet Protocol Version 4, Src: 192.168.1.172, Dst: 172.217.13.67" size="20" pos="14">
    <field name="ip.version" showname="0100 .... = Version: 4" size="1" pos="14" show="4" value="4" unmaskedvalue="45"/>
    <field name="ip.hdr_len" showname=".... 0101 = Header Length: 20 bytes (5)" size="1" pos="14" show="20" value="45"/>
    <field name="ip.dsfield" showname="Differentiated Services Field: 0x00 (DSCP: CS0, ECN: Not-ECT)" size="1" pos="15" show="0x00000000" value="00">
      <field name="ip.dsfield.dscp" showname="0000 00.. = Differentiated Services Codepoint: Default (0)" size="1" pos="15" show="0" value="0" unmaskedvalue="00"/>
      <field name="ip.dsfield.ecn" showname=".... ..00 = Explicit Congestion Notification: Not ECN-Capable Transport (0)" size="1" pos="15" show="0" value="0" unmaskedvalue="00"/>
    </field>
    <field name="ip.len" showname="Total Length: 52" size="2" pos="16" show="52" value="0034"/>
    <field name="ip.id" showname="Identification: 0x893d (35133)" size="2" pos="18" show="0x0000893d" value="893d"/>
    <field name="ip.flags" showname="Flags: 0x4000, Don&#x27;t fragment" size="2" pos="20" show="0x00004000" value="4000">
      <field name="ip.flags.rb" showname="0... .... .... .... = Reserved bit: Not set" size="2" pos="20" show="0" value="0" unmaskedvalue="4000"/>
      <field name="ip.flags.df" showname=".1.. .... .... .... = Don&#x27;t fragment: Set" size="2" pos="20" show="1" value="1" unmaskedvalue="4000"/>
      <field name="ip.flags.mf" showname="..0. .... .... .... = More fragments: Not set" size="2" pos="20" show="0" value="0" unmaskedvalue="4000"/>
    </field>
    <field name="ip.frag_offset" showname="Fragment offset: 0" size="2" pos="20" show="0" value="4000"/>
    <field name="ip.ttl" showname="Time to live: 64" size="1" pos="22" show="64" value="40"/>
    <field name="ip.proto" showname="Protocol: TCP (6)" size="1" pos="23" show="6" value="06"/>
    <field name="ip.checksum" showname="Header checksum: 0x3516 [validation disabled]" size="2" pos="24" show="0x00003516" value="3516"/>
    <field name="ip.checksum.status" showname="Header checksum status: Unverified" size="0" pos="24" show="2"/>
    <field name="ip.src" showname="Source: 192.168.1.172" size="4" pos="26" show="192.168.1.172" value="c0a801ac"/>
    <field name="ip.addr" showname="Source or Destination Address: 192.168.1.172" hide="yes" size="4" pos="26" show="192.168.1.172" value="c0a801ac"/>
    <field name="ip.src_host" showname="Source Host: 192.168.1.172" hide="yes" size="4" pos="26" show="192.168.1.172" value="c0a801ac"/>
    <field name="ip.host" showname="Source or Destination Host: 192.168.1.172" hide="yes" size="4" pos="26" show="192.168.1.172" value="c0a801ac"/>
    <field name="ip.dst" showname="Destination: 172.217.13.67" size="4" pos="30" show="172.217.13.67" value="acd90d43"/>
    <field name="ip.addr" showname="Source or Destination Address: 172.217.13.67" hide="yes" size="4" pos="30" show="172.217.13.67" value="acd90d43"/>
    <field name="ip.dst_host" showname="Destination Host: 172.217.13.67" hide="yes" size="4" pos="30" show="172.217.13.67" value="acd90d43"/>
    <field name="ip.host" showname="Source or Destination Host: 172.217.13.67" hide="yes" size="4" pos="30" show="172.217.13.67" value="acd90d43"/>
  </proto>
  <proto name="tcp" showname="Transmission Control Protocol, Src Port: 57776, Dst Port: 443, Seq: 1, Ack: 1, Len: 0" size="32" pos="34">
    <field name="tcp.srcport" showname="Source Port: 57776" size="2" pos="34" show="57776" value="e1b0"/>
    <field name="tcp.dstport" showname="Destination Port: 443" size="2" pos="36" show="443" value="01bb"/>
    <field name="tcp.port" showname="Source or Destination Port: 57776" hide="yes" size="2" pos="34" show="57776" value="e1b0"/>
    <field name="tcp.port" showname="Source or Destination Port: 443" hide="yes" size="2" pos="36" show="443" value="01bb"/>
    <field name="tcp.stream" showname="Stream index: 3" size="0" pos="34" show="3"/>
    <field name="tcp.len" showname="TCP Segment Len: 0" size="1" pos="46" show="0" value="80"/>
    <field name="tcp.seq" showname="Sequence number: 1    (relative sequence number)" size="4" pos="38" show="1" value="4d1d2eec"/>
    <field name="tcp.seq_raw" showname="Sequence number (raw): 1293758188" size="4" pos="38" show="1293758188" value="4d1d2eec"/>
    <field name="tcp.nxtseq" showname="Next sequence number: 1    (relative sequence number)" size="0" pos="34" show="1"/>
    <field name="tcp.ack" showname="Acknowledgment number: 1    (relative ack number)" size="4" pos="42" show="1" value="411c2e58"/>
    <field name="tcp.ack_raw" showname="Acknowledgment number (raw): 1092365912" size="4" pos="42" show="1092365912" value="411c2e58"/>
    <field name="tcp.hdr_len" showname="1000 .... = Header Length: 32 bytes (8)" size="1" pos="46" show="32" value="80"/>
    <field name="tcp.flags" showname="Flags: 0x010 (ACK)" size="2" pos="46" show="0x00000010" value="10" unmaskedvalue="8010">
      <field name="tcp.flags.res" showname="000. .... .... = Reserved: Not set" size="1" pos="46" show="0" value="0" unmaskedvalue="80"/>
      <field name="tcp.flags.ns" showname="...0 .... .... = Nonce: Not set" size="1" pos="46" show="0" value="0" unmaskedvalue="80"/>
      <field name="tcp.flags.cwr" showname=".... 0... .... = Congestion Window Reduced (CWR): Not set" size="1" pos="47" show="0" value="0" unmaskedvalue="10"/>
      <field name="tcp.flags.ecn" showname=".... .0.. .... = ECN-Echo: Not set" size="1" pos="47" show="0" value="0" unmaskedvalue="10"/>
      <field name="tcp.flags.urg" showname=".... ..0. .... = Urgent: Not set" size="1" pos="47" show="0" value="0" unmaskedvalue="10"/>
      <field name="tcp.flags.ack" showname=".... ...1 .... = Acknowledgment: Set" size="1" pos="47" show="1" value="1" unmaskedvalue="10"/>
      <field name="tcp.flags.push" showname=".... .... 0... = Push: Not set" size="1" pos="47" show="0" value="0" unmaskedvalue="10"/>
      <field name="tcp.flags.reset" showname=".... .... .0.. = Reset: Not set" size="1" pos="47" show="0" value="0" unmaskedvalue="10"/>
      <field name="tcp.flags.syn" showname=".... .... ..0. = Syn: Not set" size="1" pos="47" show="0" value="0" unmaskedvalue="10"/>
      <field name="tcp.flags.fin" showname=".... .... ...0 = Fin: Not set" size="1" pos="47" show="0" value="0" unmaskedvalue="10"/>
      <field name="tcp.flags.str" showname="TCP Flags: \xc2\xb7\xc2\xb7\xc2\xb7\xc2\xb7\xc2\xb7\xc2\xb7\xc2\xb7A\xc2\xb7\xc2\xb7\xc2\xb7\xc2\xb7" size="2" pos="46" show="\xc2\xb7\xc2\xb7\xc2\xb7\xc2\xb7\xc2\xb7\xc2\xb7\xc2\xb7A\xc2\xb7\xc2\xb7\xc2\xb7\xc2\xb7" value="8010"/>
    </field>
    <field name="tcp.window_size_value" showname="Window size value: 501" size="2" pos="48" show="501" value="01f5"/>
    <field name="tcp.window_size" showname="Calculated window size: 501" size="2" pos="48" show="501" value="01f5"/>
    <field name="tcp.window_size_scalefactor" showname="Window size scaling factor: -1 (unknown)" size="2" pos="48" show="-1" value="01f5"/>
    <field name="tcp.checksum" showname="Checksum: 0x9d25 [unverified]" size="2" pos="50" show="0x00009d25" value="9d25"/>
    <field name="tcp.checksum.status" showname="Checksum Status: Unverified" size="0" pos="50" show="2"/>
    <field name="tcp.urgent_pointer" showname="Urgent pointer: 0" size="2" pos="52" show="0" value="0000"/>
    <field name="tcp.options" showname="Options: (12 bytes), No-Operation (NOP), No-Operation (NOP), Timestamps" size="12" pos="54" show="01:01:08:0a:5f:21:50:65:70:cd:6b:f4" value="0101080a5f21506570cd6bf4">
      <field name="tcp.options.nop" showname="TCP Option - No-Operation (NOP)" size="1" pos="54" show="01" value="01">
        <field name="tcp.option_kind" showname="Kind: No-Operation (1)" size="1" pos="54" show="1" value="01"/>
      </field>
      <field name="tcp.options.nop" showname="TCP Option - No-Operation (NOP)" size="1" pos="55" show="01" value="01">
        <field name="tcp.option_kind" showname="Kind: No-Operation (1)" size="1" pos="55" show="1" value="01"/>
      </field>
      <field name="tcp.options.timestamp" showname="TCP Option - Timestamps: TSval 1596018789, TSecr 1892510708" size="10" pos="56" show="08:0a:5f:21:50:65:70:cd:6b:f4" value="080a5f21506570cd6bf4">
        <field name="tcp.option_kind" showname="Kind: Time Stamp Option (8)" size="1" pos="56" show="8" value="08"/>
        <field name="tcp.option_len" showname="Length: 10" size="1" pos="57" show="10" value="0a"/>
        <field name="tcp.options.timestamp.tsval" showname="Timestamp value: 1596018789" size="4" pos="58" show="1596018789" value="5f215065"/>
        <field name="tcp.options.timestamp.tsecr" showname="Timestamp echo reply: 1892510708" size="4" pos="62" show="1892510708" value="70cd6bf4"/>
      </field>
    </field>
    <field name="" show="Timestamps" size="0" pos="34">
      <field name="tcp.time_relative" showname="Time since first frame in this TCP stream: 0.000000000 seconds" size="0" pos="34" show="0.000000000"/>
      <field name="tcp.time_delta" showname="Time since previous frame in this TCP stream: 0.000000000 seconds" size="0" pos="34" show="0.000000000"/>
    </field>
  </proto>
</packet>

<packet>
  <proto name="geninfo" pos="0" showname="General information" size="66">
    <field name="num" pos="0" show="13" showname="Number" value="d" size="66"/>
    <field name="len" pos="0" show="66" showname="Frame Length" value="42" size="66"/>
    <field name="caplen" pos="0" show="66" showname="Captured Length" value="42" size="66"/>
    <field name="timestamp" pos="0" show="Oct 16, 2020 12:33:31.262502720 EDT" showname="Captured Time" value="1602866011.262502720" size="66"/>
  </proto>
  <proto name="frame" showname="Frame 13: 66 bytes on wire (528 bits), 66 bytes captured (528 bits) on interface wlp2s0, id 0" size="66" pos="0">
    <field name="frame.interface_id" showname="Interface id: 0 (wlp2s0)" size="0" pos="0" show="0">
      <field name="frame.interface_name" showname="Interface name: wlp2s0" size="0" pos="0" show="wlp2s0"/>
    </field>
    <field name="frame.encap_type" showname="Encapsulation type: Ethernet (1)" size="0" pos="0" show="1"/>
    <field name="frame.time" showname="Arrival Time: Oct 16, 2020 12:33:31.262502720 EDT" size="0" pos="0" show="Oct 16, 2020 12:33:31.262502720 EDT"/>
    <field name="frame.offset_shift" showname="Time shift for this packet: 0.000000000 seconds" size="0" pos="0" show="0.000000000"/>
    <field name="frame.time_epoch" showname="Epoch Time: 1602866011.262502720 seconds" size="0" pos="0" show="1602866011.262502720"/>
    <field name="frame.time_delta" showname="Time delta from previous captured frame: 0.007625848 seconds" size="0" pos="0" show="0.007625848"/>
    <field name="frame.time_delta_displayed" showname="Time delta from previous displayed frame: 0.007625848 seconds" size="0" pos="0" show="0.007625848"/>
    <field name="frame.time_relative" showname="Time since reference or first frame: 4.103692309 seconds" size="0" pos="0" show="4.103692309"/>
    <field name="frame.number" showname="Frame Number: 13" size="0" pos="0" show="13"/>
    <field name="frame.len" showname="Frame Length: 66 bytes (528 bits)" size="0" pos="0" show="66"/>
    <field name="frame.cap_len" showname="Capture Length: 66 bytes (528 bits)" size="0" pos="0" show="66"/>
    <field name="frame.marked" showname="Frame is marked: False" size="0" pos="0" show="0"/>
    <field name="frame.ignored" showname="Frame is ignored: False" size="0" pos="0" show="0"/>
    <field name="frame.protocols" showname="Protocols in frame: eth:ethertype:ip:tcp" size="0" pos="0" show="eth:ethertype:ip:tcp"/>
    <field name="frame.coloring_rule.name" showname="Coloring Rule Name: Bad TCP" size="0" pos="0" show="Bad TCP"/>
    <field name="frame.coloring_rule.string" showname="Coloring Rule String: tcp.analysis.flags &amp;&amp; !tcp.analysis.window_update" size="0" pos="0" show="tcp.analysis.flags &amp;&amp; !tcp.analysis.window_update"/>
  </proto>
  <proto name="eth" showname="Ethernet II, Src: Verizon_05:1f:27 (48:5d:36:05:1f:27), Dst: IntelCor_65:ea:e6 (10:f0:05:65:ea:e6)" size="14" pos="0">
    <field name="eth.dst" showname="Destination: IntelCor_65:ea:e6 (10:f0:05:65:ea:e6)" size="6" pos="0" show="10:f0:05:65:ea:e6" value="10f00565eae6">
      <field name="eth.dst_resolved" showname="Destination (resolved): IntelCor_65:ea:e6" hide="yes" size="6" pos="0" show="IntelCor_65:ea:e6" value="10f00565eae6"/>
      <field name="eth.dst.oui" showname="Destination OUI: 10:f0:05 (Intel Corporate)" hide="yes" size="3" pos="0" show="1110021" value="10f005"/>
      <field name="eth.dst.oui_resolved" showname="Destination OUI (resolved): Intel Corporate" hide="yes" size="6" pos="0" show="Intel Corporate" value="10f00565eae6"/>
      <field name="eth.addr" showname="Address: IntelCor_65:ea:e6 (10:f0:05:65:ea:e6)" size="6" pos="0" show="10:f0:05:65:ea:e6" value="10f00565eae6"/>
      <field name="eth.addr_resolved" showname="Address (resolved): IntelCor_65:ea:e6" hide="yes" size="6" pos="0" show="IntelCor_65:ea:e6" value="10f00565eae6"/>
      <field name="eth.addr.oui" showname="Address OUI: 10:f0:05 (Intel Corporate)" hide="yes" size="3" pos="0" show="1110021" value="10f005"/>
      <field name="eth.addr.oui_resolved" showname="Address OUI (resolved): Intel Corporate" hide="yes" size="6" pos="0" show="Intel Corporate" value="10f00565eae6"/>
      <field name="eth.dst.lg" showname=".... ..0. .... .... .... .... = LG bit: Globally unique address (factory default)" size="3" pos="0" show="0" value="0" unmaskedvalue="10f005"/>
      <field name="eth.lg" showname=".... ..0. .... .... .... .... = LG bit: Globally unique address (factory default)" hide="yes" size="3" pos="0" show="0" value="0" unmaskedvalue="10f005"/>
      <field name="eth.dst.ig" showname=".... ...0 .... .... .... .... = IG bit: Individual address (unicast)" size="3" pos="0" show="0" value="0" unmaskedvalue="10f005"/>
      <field name="eth.ig" showname=".... ...0 .... .... .... .... = IG bit: Individual address (unicast)" hide="yes" size="3" pos="0" show="0" value="0" unmaskedvalue="10f005"/>
    </field>
    <field name="eth.src" showname="Source: Verizon_05:1f:27 (48:5d:36:05:1f:27)" size="6" pos="6" show="48:5d:36:05:1f:27" value="485d36051f27">
      <field name="eth.src_resolved" showname="Source (resolved): Verizon_05:1f:27" hide="yes" size="6" pos="6" show="Verizon_05:1f:27" value="485d36051f27"/>
      <field name="eth.src.oui" showname="Source OUI: 48:5d:36 (Verizon)" hide="yes" size="3" pos="6" show="4742454" value="485d36"/>
      <field name="eth.src.oui_resolved" showname="Source OUI (resolved): Verizon" hide="yes" size="6" pos="6" show="Verizon" value="485d36051f27"/>
      <field name="eth.addr" showname="Address: Verizon_05:1f:27 (48:5d:36:05:1f:27)" size="6" pos="6" show="48:5d:36:05:1f:27" value="485d36051f27"/>
      <field name="eth.addr_resolved" showname="Address (resolved): Verizon_05:1f:27" hide="yes" size="6" pos="6" show="Verizon_05:1f:27" value="485d36051f27"/>
      <field name="eth.addr.oui" showname="Address OUI: 48:5d:36 (Verizon)" hide="yes" size="3" pos="6" show="4742454" value="485d36"/>
      <field name="eth.addr.oui_resolved" showname="Address OUI (resolved): Verizon" hide="yes" size="6" pos="6" show="Verizon" value="485d36051f27"/>
      <field name="eth.src.lg" showname=".... ..0. .... .... .... .... = LG bit: Globally unique address (factory default)" size="3" pos="6" show="0" value="0" unmaskedvalue="485d36"/>
      <field name="eth.lg" showname=".... ..0. .... .... .... .... = LG bit: Globally unique address (factory default)" hide="yes" size="3" pos="6" show="0" value="0" unmaskedvalue="485d36"/>
      <field name="eth.src.ig" showname=".... ...0 .... .... .... .... = IG bit: Individual address (unicast)" size="3" pos="6" show="0" value="0" unmaskedvalue="485d36"/>
      <field name="eth.ig" showname=".... ...0 .... .... .... .... = IG bit: Individual address (unicast)" hide="yes" size="3" pos="6" show="0" value="0" unmaskedvalue="485d36"/>
    </field>
    <field name="eth.type" showname="Type: IPv4 (0x0800)" size="2" pos="12" show="0x00000800" value="0800"/>
  </proto>
  <proto name="ip" showname="Internet Protocol Version 4, Src: 172.217.13.67, Dst: 192.168.1.172" size="20" pos="14">
    <field name="ip.version" showname="0100 .... = Version: 4" size="1" pos="14" show="4" value="4" unmaskedvalue="45"/>
    <field name="ip.hdr_len" showname=".... 0101 = Header Length: 20 bytes (5)" size="1" pos="14" show="20" value="45"/>
    <field name="ip.dsfield" showname="Differentiated Services Field: 0x00 (DSCP: CS0, ECN: Not-ECT)" size="1" pos="15" show="0x00000000" value="00">
      <field name="ip.dsfield.dscp" showname="0000 00.. = Differentiated Services Codepoint: Default (0)" size="1" pos="15" show="0" value="0" unmaskedvalue="00"/>
      <field name="ip.dsfield.ecn" showname=".... ..00 = Explicit Congestion Notification: Not ECN-Capable Transport (0)" size="1" pos="15" show="0" value="0" unmaskedvalue="00"/>
    </field>
    <field name="ip.len" showname="Total Length: 52" size="2" pos="16" show="52" value="0034"/>
    <field name="ip.id" showname="Identification: 0x80e2 (32994)" size="2" pos="18" show="0x000080e2" value="80e2"/>
    <field name="ip.flags" showname="Flags: 0x0000" size="2" pos="20" show="0x00000000" value="0000">
      <field name="ip.flags.rb" showname="0... .... .... .... = Reserved bit: Not set" size="2" pos="20" show="0" value="0" unmaskedvalue="0000"/>
      <field name="ip.flags.df" showname=".0.. .... .... .... = Don&#x27;t fragment: Not set" size="2" pos="20" show="0" value="0" unmaskedvalue="0000"/>
      <field name="ip.flags.mf" showname="..0. .... .... .... = More fragments: Not set" size="2" pos="20" show="0" value="0" unmaskedvalue="0000"/>
    </field>
    <field name="ip.frag_offset" showname="Fragment offset: 0" size="2" pos="20" show="0" value="0000"/>
    <field name="ip.ttl" showname="Time to live: 60" size="1" pos="22" show="60" value="3c"/>
    <field name="ip.proto" showname="Protocol: TCP (6)" size="1" pos="23" show="6" value="06"/>
    <field name="ip.checksum" showname="Header checksum: 0x8171 [validation disabled]" size="2" pos="24" show="0x00008171" value="8171"/>
    <field name="ip.checksum.status" showname="Header checksum status: Unverified" size="0" pos="24" show="2"/>
    <field name="ip.src" showname="Source: 172.217.13.67" size="4" pos="26" show="172.217.13.67" value="acd90d43"/>
    <field name="ip.addr" showname="Source or Destination Address: 172.217.13.67" hide="yes" size="4" pos="26" show="172.217.13.67" value="acd90d43"/>
    <field name="ip.src_host" showname="Source Host: 172.217.13.67" hide="yes" size="4" pos="26" show="172.217.13.67" value="acd90d43"/>
    <field name="ip.host" showname="Source or Destination Host: 172.217.13.67" hide="yes" size="4" pos="26" show="172.217.13.67" value="acd90d43"/>
    <field name="ip.dst" showname="Destination: 192.168.1.172" size="4" pos="30" show="192.168.1.172" value="c0a801ac"/>
    <field name="ip.addr" showname="Source or Destination Address: 192.168.1.172" hide="yes" size="4" pos="30" show="192.168.1.172" value="c0a801ac"/>
    <field name="ip.dst_host" showname="Destination Host: 192.168.1.172" hide="yes" size="4" pos="30" show="192.168.1.172" value="c0a801ac"/>
    <field name="ip.host" showname="Source or Destination Host: 192.168.1.172" hide="yes" size="4" pos="30" show="192.168.1.172" value="c0a801ac"/>
  </proto>
  <proto name="tcp" showname="Transmission Control Protocol, Src Port: 443, Dst Port: 57776, Seq: 1, Ack: 2, Len: 0" size="32" pos="34">
    <field name="tcp.srcport" showname="Source Port: 443" size="2" pos="34" show="443" value="01bb"/>
    <field name="tcp.dstport" showname="Destination Port: 57776" size="2" pos="36" show="57776" value="e1b0"/>
    <field name="tcp.port" showname="Source or Destination Port: 443" hide="yes" size="2" pos="34" show="443" value="01bb"/>
    <field name="tcp.port" showname="Source or Destination Port: 57776" hide="yes" size="2" pos="36" show="57776" value="e1b0"/>
    <field name="tcp.stream" showname="Stream index: 3" size="0" pos="34" show="3"/>
    <field name="tcp.len" showname="TCP Segment Len: 0" size="1" pos="46" show="0" value="80"/>
    <field name="tcp.seq" showname="Sequence number: 1    (relative sequence number)" size="4" pos="38" show="1" value="411c2e58"/>
    <field name="tcp.seq_raw" showname="Sequence number (raw): 1092365912" size="4" pos="38" show="1092365912" value="411c2e58"/>
    <field name="tcp.nxtseq" showname="Next sequence number: 1    (relative sequence number)" size="0" pos="34" show="1"/>
    <field name="tcp.ack" showname="Acknowledgment number: 2    (relative ack number)" size="4" pos="42" show="2" value="4d1d2eed"/>
    <field name="tcp.ack_raw" showname="Acknowledgment number (raw): 1293758189" size="4" pos="42" show="1293758189" value="4d1d2eed"/>
    <field name="tcp.hdr_len" showname="1000 .... = Header Length: 32 bytes (8)" size="1" pos="46" show="32" value="80"/>
    <field name="tcp.flags" showname="Flags: 0x010 (ACK)" size="2" pos="46" show="0x00000010" value="10" unmaskedvalue="8010">
      <field name="tcp.flags.res" showname="000. .... .... = Reserved: Not set" size="1" pos="46" show="0" value="0" unmaskedvalue="80"/>
      <field name="tcp.flags.ns" showname="...0 .... .... = Nonce: Not set" size="1" pos="46" show="0" value="0" unmaskedvalue="80"/>
      <field name="tcp.flags.cwr" showname=".... 0... .... = Congestion Window Reduced (CWR): Not set" size="1" pos="47" show="0" value="0" unmaskedvalue="10"/>
      <field name="tcp.flags.ecn" showname=".... .0.. .... = ECN-Echo: Not set" size="1" pos="47" show="0" value="0" unmaskedvalue="10"/>
      <field name="tcp.flags.urg" showname=".... ..0. .... = Urgent: Not set" size="1" pos="47" show="0" value="0" unmaskedvalue="10"/>
      <field name="tcp.flags.ack" showname=".... ...1 .... = Acknowledgment: Set" size="1" pos="47" show="1" value="1" unmaskedvalue="10"/>
      <field name="tcp.flags.push" showname=".... .... 0... = Push: Not set" size="1" pos="47" show="0" value="0" unmaskedvalue="10"/>
      <field name="tcp.flags.reset" showname=".... .... .0.. = Reset: Not set" size="1" pos="47" show="0" value="0" unmaskedvalue="10"/>
      <field name="tcp.flags.syn" showname=".... .... ..0. = Syn: Not set" size="1" pos="47" show="0" value="0" unmaskedvalue="10"/>
      <field name="tcp.flags.fin" showname=".... .... ...0 = Fin: Not set" size="1" pos="47" show="0" value="0" unmaskedvalue="10"/>
      <field name="tcp.flags.str" showname="TCP Flags: \xc2\xb7\xc2\xb7\xc2\xb7\xc2\xb7\xc2\xb7\xc2\xb7\xc2\xb7A\xc2\xb7\xc2\xb7\xc2\xb7\xc2\xb7" size="2" pos="46" show="\xc2\xb7\xc2\xb7\xc2\xb7\xc2\xb7\xc2\xb7\xc2\xb7\xc2\xb7A\xc2\xb7\xc2\xb7\xc2\xb7\xc2\xb7" value="8010"/>
    </field>
    <field name="tcp.window_size_value" showname="Window size value: 270" size="2" pos="48" show="270" value="010e"/>
    <field name="tcp.window_size" showname="Calculated window size: 270" size="2" pos="48" show="270" value="010e"/>
    <field name="tcp.window_size_scalefactor" showname="Window size scaling factor: -1 (unknown)" size="2" pos="48" show="-1" value="010e"/>
    <field name="tcp.checksum" showname="Checksum: 0x9e12 [unverified]" size="2" pos="50" show="0x00009e12" value="9e12"/>
    <field name="tcp.checksum.status" showname="Checksum Status: Unverified" size="0" pos="50" show="2"/>
    <field name="tcp.urgent_pointer" showname="Urgent pointer: 0" size="2" pos="52" show="0" value="0000"/>
    <field name="tcp.options" showname="Options: (12 bytes), No-Operation (NOP), No-Operation (NOP), Timestamps" size="12" pos="54" show="01:01:08:0a:70:ce:21:ef:5f:20:9a:63" value="0101080a70ce21ef5f209a63">
      <field name="tcp.options.nop" showname="TCP Option - No-Operation (NOP)" size="1" pos="54" show="01" value="01">
        <field name="tcp.option_kind" showname="Kind: No-Operation (1)" size="1" pos="54" show="1" value="01"/>
      </field>
      <field name="tcp.options.nop" showname="TCP Option - No-Operation (NOP)" size="1" pos="55" show="01" value="01">
        <field name="tcp.option_kind" showname="Kind: No-Operation (1)" size="1" pos="55" show="1" value="01"/>
      </field>
      <field name="tcp.options.timestamp" showname="TCP Option - Timestamps: TSval 1892557295, TSecr 1595972195" size="10" pos="56" show="08:0a:70:ce:21:ef:5f:20:9a:63" value="080a70ce21ef5f209a63">
        <field name="tcp.option_kind" showname="Kind: Time Stamp Option (8)" size="1" pos="56" show="8" value="08"/>
        <field name="tcp.option_len" showname="Length: 10" size="1" pos="57" show="10" value="0a"/>
        <field name="tcp.options.timestamp.tsval" showname="Timestamp value: 1892557295" size="4" pos="58" show="1892557295" value="70ce21ef"/>
        <field name="tcp.options.timestamp.tsecr" showname="Timestamp echo reply: 1595972195" size="4" pos="62" show="1595972195" value="5f209a63"/>
      </field>
    </field>
    <field name="tcp.analysis" showname="SEQ/ACK analysis" size="0" pos="34" show="" value="">
      <field name="tcp.analysis.flags" showname="TCP Analysis Flags" size="0" pos="34" show="" value="">
        <field name="_ws.expert" showname="Expert Info (Warning/Sequence): ACKed segment that wasn&#x27;t captured (common at capture start)" size="0" pos="34">
          <field name="tcp.analysis.ack_lost_segment" showname="ACKed segment that wasn&#x27;t captured (common at capture start)" size="0" pos="0" show="" value=""/>
          <field name="_ws.expert.message" showname="Message: ACKed segment that wasn&#x27;t captured (common at capture start)" hide="yes" size="0" pos="0" show="ACKed segment that wasn&#x27;t captured (common at capture start)"/>
          <field name="_ws.expert.severity" showname="Severity level: Warning" size="0" pos="0" show="6291456"/>
          <field name="_ws.expert.group" showname="Group: Sequence" size="0" pos="0" show="33554432"/>
        </field>
      </field>
    </field>
    <field name="" show="Timestamps" size="0" pos="34">
      <field name="tcp.time_relative" showname="Time since first frame in this TCP stream: 0.007625848 seconds" size="0" pos="34" show="0.007625848"/>
      <field name="tcp.time_delta" showname="Time since previous frame in this TCP stream: 0.007625848 seconds" size="0" pos="34" show="0.007625848"/>
    </field>
  </proto>
</packet>

</pdml>
